(lp1
(dp2
V_score
p3
F1
sV_type
p4
Vindex-pattern
p5
sV_id
p6
Vbro*
p7
sV_source
p8
(dp9
Vfields
p10
V[{"name":"TTLs","type":"number","count":0,"scripted":false,"indexed":true,"analyzed":false,"doc_values":true},{"name":"qclass_name","type":"string","count":0,"scripted":false,"indexed":true,"analyzed":false,"doc_values":true},{"name":"bro_timestamp","type":"string","count":0,"scripted":false,"indexed":true,"analyzed":true,"doc_values":false},{"name":"enrichments:geo:ip_dst_addr:location_point","type":"geo_point","count":0,"scripted":false,"indexed":true,"analyzed":false,"doc_values":true},{"name":"answers","type":"ip","count":0,"scripted":false,"indexed":true,"analyzed":false,"doc_values":true},{"name":"enrichmentjoinbolt:joiner:ts","type":"date","count":0,"scripted":false,"indexed":true,"analyzed":false,"doc_values":true},{"name":"adapter:geoadapter:begin:ts","type":"date","count":1,"scripted":false,"indexed":true,"analyzed":false,"doc_values":true},{"name":"resp_mime_types","type":"string","count":0,"scripted":false,"indexed":true,"analyzed":true,"doc_values":false},{"name":"protocol","type":"string","count":0,"scripted":false,"indexed":true,"analyzed":false,"doc_values":true},{"name":"original_string","type":"string","count":0,"scripted":false,"indexed":true,"analyzed":true,"doc_values":false},{"name":"adapter:threatinteladapter:end:ts","type":"date","count":0,"scripted":false,"indexed":true,"analyzed":false,"doc_values":true},{"name":"host","type":"string","count":0,"scripted":false,"indexed":true,"analyzed":false,"doc_values":true},{"name":"adapter:geoadapter:end:ts","type":"date","count":1,"scripted":false,"indexed":true,"analyzed":false,"doc_values":true},{"name":"AA","type":"boolean","count":0,"scripted":false,"indexed":true,"analyzed":false,"doc_values":true},{"name":"method","type":"string","count":0,"scripted":false,"indexed":true,"analyzed":false,"doc_values":true},{"name":"enrichmentsplitterbolt:splitter:end:ts","type":"date","count":0,"scripted":false,"indexed":true,"analyzed":false,"doc_values":true},{"name":"query","type":"string","count":0,"scripted":false,"indexed":true,"analyzed":false,"doc_values":true},{"name":"enrichments:geo:ip_dst_addr:city","type":"string","count":0,"scripted":false,"indexed":true,"analyzed":false,"doc_values":true},{"name":"rcode","type":"number","count":0,"scripted":false,"indexed":true,"analyzed":false,"doc_values":true},{"name":"adapter:hostfromjsonlistadapter:begin:ts","type":"date","count":0,"scripted":false,"indexed":true,"analyzed":false,"doc_values":true},{"name":"orig_mime_types","type":"string","count":0,"scripted":false,"indexed":true,"analyzed":true,"doc_values":false},{"name":"RA","type":"boolean","count":0,"scripted":false,"indexed":true,"analyzed":false,"doc_values":true},{"name":"RD","type":"boolean","count":0,"scripted":false,"indexed":true,"analyzed":false,"doc_values":true},{"name":"orig_fuids","type":"string","count":0,"scripted":false,"indexed":true,"analyzed":true,"doc_values":false},{"name":"proto","type":"string","count":0,"scripted":false,"indexed":true,"analyzed":false,"doc_values":true},{"name":"adapter:threatinteladapter:begin:ts","type":"date","count":0,"scripted":false,"indexed":true,"analyzed":false,"doc_values":true},{"name":"_source","type":"_source","count":0,"scripted":false,"indexed":false,"analyzed":false,"doc_values":false},{"name":"enrichments:geo:ip_dst_addr:country","type":"string","count":0,"scripted":false,"indexed":true,"analyzed":false,"doc_values":true},{"name":"response_body_len","type":"number","count":0,"scripted":false,"indexed":true,"analyzed":false,"doc_values":true},{"name":"enrichments:geo:ip_dst_addr:locID","type":"string","count":0,"scripted":false,"indexed":true,"analyzed":false,"doc_values":true},{"name":"qtype_name","type":"string","count":0,"scripted":false,"indexed":true,"analyzed":false,"doc_values":true},{"name":"status_code","type":"number","count":0,"scripted":false,"indexed":true,"analyzed":false,"doc_values":true},{"name":"_index","type":"string","count":0,"scripted":false,"indexed":false,"analyzed":false,"doc_values":false},{"name":"ip_dst_port","type":"number","count":0,"scripted":false,"indexed":true,"analyzed":false,"doc_values":true},{"name":"enrichments:geo:ip_dst_addr:dmaCode","type":"string","count":0,"scripted":false,"indexed":true,"analyzed":false,"doc_values":true},{"name":"threatinteljoinbolt:joiner:ts","type":"date","count":0,"scripted":false,"indexed":true,"analyzed":false,"doc_values":true},{"name":"rejected","type":"boolean","count":0,"scripted":false,"indexed":true,"analyzed":false,"doc_values":true},{"name":"qtype","type":"number","count":0,"scripted":false,"indexed":true,"analyzed":false,"doc_values":true},{"name":"enrichmentsplitterbolt:splitter:begin:ts","type":"date","count":0,"scripted":false,"indexed":true,"analyzed":false,"doc_values":true},{"name":"trans_id","type":"number","count":0,"scripted":false,"indexed":true,"analyzed":false,"doc_values":true},{"name":"enrichments:geo:ip_dst_addr:latitude","type":"number","count":0,"scripted":false,"indexed":true,"analyzed":false,"doc_values":true},{"name":"uid","type":"string","count":0,"scripted":false,"indexed":true,"analyzed":false,"doc_values":true},{"name":"source:type","type":"string","count":0,"scripted":false,"indexed":true,"analyzed":false,"doc_values":true},{"name":"trans_depth","type":"number","count":0,"scripted":false,"indexed":true,"analyzed":false,"doc_values":true},{"name":"ip_dst_addr","type":"ip","count":0,"scripted":false,"indexed":true,"analyzed":false,"doc_values":true},{"name":"adapter:hostfromjsonlistadapter:end:ts","type":"date","count":0,"scripted":false,"indexed":true,"analyzed":false,"doc_values":true},{"name":"Z","type":"number","count":0,"scripted":false,"indexed":true,"analyzed":false,"doc_values":true},{"name":"ip_src_addr","type":"ip","count":0,"scripted":false,"indexed":true,"analyzed":false,"doc_values":true},{"name":"threatintelsplitterbolt:splitter:end:ts","type":"date","count":0,"scripted":false,"indexed":true,"analyzed":false,"doc_values":true},{"name":"enrichments:geo:ip_dst_addr:longitude","type":"number","count":0,"scripted":false,"indexed":true,"analyzed":false,"doc_values":true},{"name":"user_agent","type":"string","count":0,"scripted":false,"indexed":true,"analyzed":true,"doc_values":false},{"name":"qclass","type":"number","count":0,"scripted":false,"indexed":true,"analyzed":false,"doc_values":true},{"name":"timestamp","type":"date","count":0,"scripted":false,"indexed":true,"analyzed":false,"doc_values":true},{"name":"resp_fuids","type":"string","count":0,"scripted":false,"indexed":true,"analyzed":true,"doc_values":false},{"name":"request_body_len","type":"number","count":0,"scripted":false,"indexed":true,"analyzed":false,"doc_values":true},{"name":"enrichments:geo:ip_dst_addr:postalCode","type":"string","count":0,"scripted":false,"indexed":true,"analyzed":false,"doc_values":true},{"name":"uri","type":"string","count":0,"scripted":false,"indexed":true,"analyzed":false,"doc_values":true},{"name":"rcode_name","type":"string","count":0,"scripted":false,"indexed":true,"analyzed":false,"doc_values":true},{"name":"TC","type":"boolean","count":0,"scripted":false,"indexed":true,"analyzed":false,"doc_values":true},{"name":"referrer","type":"string","count":0,"scripted":false,"indexed":true,"analyzed":false,"doc_values":true},{"name":"ip_src_port","type":"number","count":0,"scripted":false,"indexed":true,"analyzed":false,"doc_values":true},{"name":"status_msg","type":"string","count":0,"scripted":false,"indexed":true,"analyzed":false,"doc_values":true},{"name":"threatintelsplitterbolt:splitter:begin:ts","type":"date","count":0,"scripted":false,"indexed":true,"analyzed":false,"doc_values":true},{"name":"_id","type":"string","count":0,"scripted":false,"indexed":false,"analyzed":false,"doc_values":false},{"name":"_type","type":"string","count":1,"scripted":false,"indexed":false,"analyzed":false,"doc_values":false},{"name":"_score","type":"number","count":2,"scripted":false,"indexed":false,"analyzed":false,"doc_values":false}]
p11
sVtimeFieldName
p12
Vtimestamp
p13
sVtitle
p14
Vbro*
p15
ssV_index
p16
V.kibana
p17
sa(dp18
V_score
p19
F1
sV_type
p20
Vsearch
p21
sV_id
p22
Vsnort-search
p23
sV_source
p24
(dp25
Vsort
p26
(lp27
Vtimestamp
p28
aVdesc
p29
asVhits
p30
I0
sVdescription
p31
V
sVtitle
p32
VSnort Alerts
p33
sVversion
p34
I1
sVkibanaSavedObjectMeta
p35
(dp36
VsearchSourceJSON
p37
V{"index":"snort*","query":{"query_string":{"analyze_wildcard":true,"query":"*"}},"filter":[],"highlight":{"pre_tags":["@kibana-highlighted-field@"],"post_tags":["@/kibana-highlighted-field@"],"fields":{"*":{}},"require_field_match":false,"fragment_size":2147483647}}
p38
ssVcolumns
p39
(lp40
Vmsg
p41
aVsig_id
p42
aVip_src_addr
p43
aVip_src_port
p44
aVip_dst_addr
p45
aVip_dst_port
p46
assV_index
p47
V.kibana
p48
sa(dp49
V_score
p50
F1
sV_type
p51
Vsearch
p52
sV_id
p53
Vyaf-search
p54
sV_source
p55
(dp56
Vsort
p57
(lp58
Vtimestamp
p59
aVdesc
p60
asVhits
p61
I0
sVdescription
p62
V
sVtitle
p63
VYAF
p64
sVversion
p65
I1
sVkibanaSavedObjectMeta
p66
(dp67
VsearchSourceJSON
p68
V{"index":"yaf*","filter":[],"highlight":{"pre_tags":["@kibana-highlighted-field@"],"post_tags":["@/kibana-highlighted-field@"],"fields":{"*":{}},"require_field_match":false,"fragment_size":2147483647},"query":{"query_string":{"query":"*","analyze_wildcard":true}}}
p69
ssVcolumns
p70
(lp71
Vip_src_addr
p72
aVip_src_port
p73
aVip_dst_addr
p74
aVip_dst_port
p75
aVprotocol
p76
aVduration
p77
aVpkt
p78
assV_index
p79
V.kibana
p80
sa(dp81
V_score
p82
F1
sV_type
p83
Vvisualization
p84
sV_id
p85
VWelcome
p86
sV_source
p87
(dp88
VvisState
p89
V{"title":"Welcome to Apache Metron","type":"markdown","params":{"markdown":"This dashboard enables the validation of Apache Metron and the end-to-end functioning of its default sensor suite.  The default sensor suite includes [Snort](https://www.snort.org/), [Bro](https://www.bro.org/), and [YAF](https://tools.netsa.cert.org/yaf/).  One of Apache Metron's primary goals is to simplify the onboarding of additional sources of telemetry.  In a production deployment these default sensors should be replaced with ones applicable to the target environment.\u005cn\u005cnApache Metron enables disparate sources of telemetry to all be viewed under a 'single pane of glass.'  Telemetry from each of the default sensors can be searched, aggregated, summarized, and viewed within this dashboard. This dashboard should be used as a springboard upon which to create your own customized dashboards.\u005cn\u005cnThe panels below highlight the volume and variety of events that are currently being consumed by Apache Metron."},"aggs":[],"listeners":{}}
p90
sVdescription
p91
V
sVtitle
p92
VWelcome to Apache Metron
p93
sVuiStateJSON
p94
V{}
p95
sVversion
p96
I1
sVkibanaSavedObjectMeta
p97
(dp98
VsearchSourceJSON
p99
V{"query":{"query_string":{"analyze_wildcard":true,"query":"*"}},"filter":[]}
p100
sssV_index
p101
V.kibana
p102
sa(dp103
V_score
p104
F1
sV_type
p105
Vvisualization
p106
sV_id
p107
VTop-Snort-Alerts-by-Source
p108
sV_source
p109
(dp110
VvisState
p111
V{"title":"Top Snort Alerts by Source","type":"table","params":{"perPage":10,"showPartialRows":false,"showMeticsAtAllLevels":false},"aggs":[{"id":"1","type":"count","schema":"metric","params":{}},{"id":"2","type":"terms","schema":"bucket","params":{"field":"ip_src_addr","size":10,"order":"desc","orderBy":"1","customLabel":"Source IP"}}],"listeners":{}}
p112
sVdescription
p113
V
sVtitle
p114
VTop Snort Alerts by Source
p115
sVuiStateJSON
p116
V{}
p117
sVversion
p118
I1
sVkibanaSavedObjectMeta
p119
(dp120
VsearchSourceJSON
p121
V{"index":"snort*","query":{"query_string":{"query":"*","analyze_wildcard":true}},"filter":[]}
p122
sssV_index
p123
V.kibana
p124
sa(dp125
V_score
p126
F1
sV_type
p127
Vvisualization
p128
sV_id
p129
VWeb-Request-Type
p130
sV_source
p131
(dp132
VvisState
p133
V{"title":"Web Request Type","type":"pie","params":{"shareYAxis":true,"addTooltip":true,"addLegend":true,"isDonut":false},"aggs":[{"id":"1","type":"count","schema":"metric","params":{}},{"id":"2","type":"terms","schema":"segment","params":{"field":"method","size":5,"order":"desc","orderBy":"1"}}],"listeners":{}}
p134
sVdescription
p135
V
sVtitle
p136
VWeb Request Type
p137
sVuiStateJSON
p138
V{}
p139
sVversion
p140
I1
sVsavedSearchId
p141
Vweb-search
p142
sVkibanaSavedObjectMeta
p143
(dp144
VsearchSourceJSON
p145
V{"filter":[]}
p146
sssV_index
p147
V.kibana
p148
sa(dp149
V_score
p150
F1
sV_type
p151
Vconfig
p152
sV_id
p153
V4.5.1
p154
sV_source
p155
(dp156
VbuildNum
p157
I9892
sVdefaultIndex
p158
Vbro*
p159
ssV_index
p160
V.kibana
p161
sa(dp162
V_score
p163
F1
sV_type
p164
Vvisualization
p165
sV_id
p166
VWeb-Request-Header
p167
sV_source
p168
(dp169
VvisState
p170
V{"title":"Web Request Header","type":"markdown","params":{"markdown":"The [Bro Network Security Monitor](https://www.bro.org/) is extracting application-level information from raw network packets.  In this example, Bro is extracting HTTP(S) requests being made over the network. "},"aggs":[],"listeners":{}}
p171
sVdescription
p172
V
sVtitle
p173
VWeb Request Header
p174
sVuiStateJSON
p175
V{}
p176
sVversion
p177
I1
sVkibanaSavedObjectMeta
p178
(dp179
VsearchSourceJSON
p180
V{"query":{"query_string":{"query":"*","analyze_wildcard":true}},"filter":[]}
p181
sssV_index
p182
V.kibana
p183
sa(dp184
V_score
p185
F1
sV_type
p186
Vvisualization
p187
sV_id
p188
VError-Type-Proportion
p189
sV_source
p190
(dp191
VvisState
p192
V{"title":"Error Type Proportion","type":"pie","params":{"shareYAxis":true,"addTooltip":true,"addLegend":true,"isDonut":false},"aggs":[{"id":"1","type":"count","schema":"metric","params":{}},{"id":"2","type":"terms","schema":"segment","params":{"field":"error_type","size":5,"order":"desc","orderBy":"1"}}],"listeners":{}}
p193
sVdescription
p194
V
sVtitle
p195
VError Type Proportion
p196
sVuiStateJSON
p197
V{}
p198
sVversion
p199
I1
sVkibanaSavedObjectMeta
p200
(dp201
VsearchSourceJSON
p202
V{"index":"error*","query":{"query_string":{"query":"*","analyze_wildcard":true}},"filter":[]}
p203
sssV_index
p204
V.kibana
p205
sa(dp206
V_score
p207
F1
sV_type
p208
Vvisualization
p209
sV_id
p210
VFlow-Duration
p211
sV_source
p212
(dp213
VvisState
p214
V{"title":"Flow Duration","type":"area","params":{"shareYAxis":true,"addTooltip":true,"addLegend":true,"smoothLines":false,"scale":"linear","interpolate":"linear","mode":"stacked","times":[],"addTimeMarker":false,"defaultYExtents":false,"setYExtents":false,"yAxis":{}},"aggs":[{"id":"1","type":"count","schema":"metric","params":{}},{"id":"2","type":"histogram","schema":"segment","params":{"field":"duration","interval":10,"extended_bounds":{},"customLabel":"Flow Duration (seconds)"}}],"listeners":{}}
p215
sVdescription
p216
V
sVtitle
p217
VFlow Duration
p218
sVuiStateJSON
p219
V{"vis":{"legendOpen":false}}
p220
sVversion
p221
I1
sVkibanaSavedObjectMeta
p222
(dp223
VsearchSourceJSON
p224
V{"index":"yaf*","query":{"query_string":{"query":"*","analyze_wildcard":true}},"filter":[]}
p225
sssV_index
p226
V.kibana
p227
sa(dp228
V_score
p229
F1
sV_type
p230
Vvisualization
p231
sV_id
p232
VErrors-By-Source
p233
sV_source
p234
(dp235
VvisState
p236
V{"title":"Errors By Source","type":"histogram","params":{"shareYAxis":true,"addTooltip":true,"addLegend":true,"scale":"linear","mode":"stacked","times":[],"addTimeMarker":false,"defaultYExtents":false,"setYExtents":false,"yAxis":{}},"aggs":[{"id":"1","type":"count","schema":"metric","params":{}},{"id":"2","type":"terms","schema":"segment","params":{"field":"source_type","size":5,"order":"desc","orderBy":"1","customLabel":"Source"}}],"listeners":{}}
p237
sVdescription
p238
V
sVtitle
p239
VErrors By Source
p240
sVuiStateJSON
p241
V{}
p242
sVversion
p243
I1
sVkibanaSavedObjectMeta
p244
(dp245
VsearchSourceJSON
p246
V{"index":"error*","query":{"query_string":{"query":"*","analyze_wildcard":true}},"filter":[]}
p247
sssV_index
p248
V.kibana
p249
sa(dp250
V_score
p251
F1
sV_type
p252
Vvisualization
p253
sV_id
p254
VEvents
p255
sV_source
p256
(dp257
VvisState
p258
V{"title":"Events","type":"histogram","params":{"shareYAxis":true,"addTooltip":true,"addLegend":true,"scale":"linear","mode":"stacked","times":[],"addTimeMarker":false,"defaultYExtents":false,"setYExtents":false,"yAxis":{}},"aggs":[{"id":"1","type":"count","schema":"metric","params":{}},{"id":"2","type":"date_histogram","schema":"segment","params":{"field":"timestamp","interval":"auto","customInterval":"2h","min_doc_count":1,"extended_bounds":{}}},{"id":"3","type":"terms","schema":"group","params":{"field":"source:type","size":5,"order":"desc","orderBy":"1"}}],"listeners":{}}
p259
sVdescription
p260
V
sVtitle
p261
VEvents
p262
sVuiStateJSON
p263
V{"vis":{"legendOpen":false}}
p264
sVversion
p265
I1
sVkibanaSavedObjectMeta
p266
(dp267
VsearchSourceJSON
p268
V{"index":["yaf*","bro*","snort*"],"query":{"query_string":{"query":"*","analyze_wildcard":true}},"filter":[]}
p269
sssV_index
p270
V.kibana
p271
sa(dp272
V_score
p273
F1
sV_type
p274
Vvisualization
p275
sV_id
p276
VUnique-Error-Messages
p277
sV_source
p278
(dp279
VvisState
p280
V{\u000a  "title": "Total Unique Error Messages",\u000a  "type": "metric",\u000a  "params": {\u000a    "handleNoResults": true,\u000a    "fontSize": 60\u000a  },\u000a  "aggs": [\u000a    {\u000a      "id": "1",\u000a      "type": "cardinality",\u000a      "schema": "metric",\u000a      "params": {\u000a        "field": "error_hash",\u000a        "customLabel": "Unique Error Messages"\u000a      }\u000a    }\u000a  ],\u000a  "listeners": {}\u000a}
p281
sVdescription
p282
V
sVtitle
p283
VUnique Error Messages
p284
sVuiStateJSON
p285
V{}
p286
sVversion
p287
I1
sVkibanaSavedObjectMeta
p288
(dp289
VsearchSourceJSON
p290
V{\u000a  "index": "error*",\u000a  "query": {\u000a    "query_string": {\u000a      "query": "*",\u000a      "analyze_wildcard": true\u000a    }\u000a  },\u000a  "filter": []\u000a}
p291
sssV_index
p292
V.kibana
p293
sa(dp294
V_score
p295
F1
sV_type
p296
Vvisualization
p297
sV_id
p298
VErrors-By-Error-Type
p299
sV_source
p300
(dp301
VvisState
p302
V{\u000a  "title": "Errors By Error Type",\u000a  "type": "histogram",\u000a  "params": {\u000a    "addLegend": true,\u000a    "addTimeMarker": false,\u000a    "addTooltip": true,\u000a    "defaultYExtents": false,\u000a    "mode": "grouped",\u000a    "scale": "linear",\u000a    "setYExtents": false,\u000a    "shareYAxis": true,\u000a    "times": [],\u000a    "yAxis": {}\u000a  },\u000a  "aggs": [\u000a    {\u000a      "id": "1",\u000a      "type": "count",\u000a      "schema": "metric",\u000a      "params": {\u000a        "customLabel": "Count"\u000a      }\u000a    },\u000a    {\u000a      "id": "2",\u000a      "type": "terms",\u000a      "schema": "segment",\u000a      "params": {\u000a        "field": "error_type",\u000a        "size": 5,\u000a        "order": "desc",\u000a        "orderBy": "1"\u000a      }\u000a    },\u000a    {\u000a      "id": "4",\u000a      "type": "cardinality",\u000a      "schema": "metric",\u000a      "params": {\u000a        "field": "error_hash",\u000a        "customLabel": "Unique Datapoint Count"\u000a      }\u000a    }\u000a  ],\u000a  "listeners": {}\u000a}
p303
sVdescription
p304
V
sVtitle
p305
VErrors By Error Type
p306
sVuiStateJSON
p307
V{\u000a  "vis": {\u000a    "colors": {\u000a      "Unique Datapoint Count": "#806EB7",\u000a      "Count": "#614D93"\u000a    }\u000a  }\u000a}
p308
sVversion
p309
I1
sVkibanaSavedObjectMeta
p310
(dp311
VsearchSourceJSON
p312
V{\u000a  "index": "error*",\u000a  "query": {\u000a    "query_string": {\u000a      "analyze_wildcard": true,\u000a      "query": "*"\u000a    }\u000a  },\u000a  "filter": []\u000a}
p313
sssV_index
p314
V.kibana
p315
sa(dp316
V_score
p317
F1
sV_type
p318
Vsearch
p319
sV_id
p320
VErrors
p321
sV_source
p322
(dp323
Vsort
p324
(lp325
Vtimestamp
p326
aVdesc
p327
asVhits
p328
I0
sVdescription
p329
V
sVtitle
p330
VErrors
p331
sVversion
p332
I1
sVkibanaSavedObjectMeta
p333
(dp334
VsearchSourceJSON
p335
V{"index":"error*","query":{"query_string":{"analyze_wildcard":true,"query":"*"}},"filter":[],"highlight":{"pre_tags":["@kibana-highlighted-field@"],"post_tags":["@/kibana-highlighted-field@"],"fields":{"*":{}},"require_field_match":false,"fragment_size":2147483647}}
p336
ssVcolumns
p337
(lp338
Vfailed_sensor_type
p339
aVerror_type
p340
aVexception
p341
aVhostname
p342
aVmessage
p343
aVraw_message
p344
aVerror_hash
p345
assV_index
p346
V.kibana
p347
sa(dp348
V_score
p349
F1
sV_type
p350
Vdashboard
p351
sV_id
p352
VMetron-Dashboard
p353
sV_source
p354
(dp355
Vhits
p356
I0
sVtimeRestore
p357
I00
sVdescription
p358
V
sVtitle
p359
VMetron Dashboard
p360
sVuiStateJSON
p361
V{"P-23":{"spy":{"mode":{"name":null,"fill":false}}},"P-34":{"vis":{"legendOpen":false}}}
p362
sVpanelsJSON
p363
V[{"col":1,"id":"Welcome","panelIndex":30,"row":1,"size_x":11,"size_y":2,"type":"visualization"},{"col":1,"id":"Total-Events","panelIndex":6,"row":3,"size_x":3,"size_y":2,"type":"visualization"},{"col":4,"id":"Events","panelIndex":16,"row":3,"size_x":8,"size_y":4,"type":"visualization"},{"col":1,"id":"Event-Types","panelIndex":15,"row":5,"size_x":3,"size_y":2,"type":"visualization"},{"col":1,"id":"Location-Header","panelIndex":24,"row":7,"size_x":3,"size_y":2,"type":"visualization"},{"col":1,"id":"Unique-Location(s)","panelIndex":23,"row":9,"size_x":3,"size_y":2,"type":"visualization"},{"col":4,"id":"Flow-Locations","panelIndex":32,"row":7,"size_x":8,"size_y":6,"type":"visualization"},{"col":1,"id":"Country","panelIndex":8,"row":11,"size_x":3,"size_y":2,"type":"visualization"},{"col":1,"id":"YAF-Flows-Header","panelIndex":27,"row":13,"size_x":3,"size_y":2,"type":"visualization"},{"col":1,"id":"YAF-Flow(s)","panelIndex":21,"row":15,"size_x":3,"size_y":2,"type":"visualization"},{"col":4,"columns":["ip_src_addr","ip_src_port","ip_dst_addr","ip_dst_port","protocol","duration","pkt"],"id":"yaf-search","panelIndex":20,"row":13,"size_x":8,"size_y":6,"sort":["duration","desc"],"type":"search"},{"col":1,"id":"Flow-Duration","panelIndex":31,"row":17,"size_x":3,"size_y":2,"type":"visualization"},{"col":1,"id":"Snort-Header","panelIndex":25,"row":19,"size_x":3,"size_y":2,"type":"visualization"},{"col":4,"columns":["msg","sig_id","ip_src_addr","ip_src_port","ip_dst_addr","ip_dst_port"],"id":"snort-search","panelIndex":3,"row":19,"size_x":8,"size_y":6,"sort":["timestamp","desc"],"type":"search"},{"col":1,"id":"Snort-Alert-Types","panelIndex":10,"row":21,"size_x":3,"size_y":2,"type":"visualization"},{"col":1,"id":"Top-Alerts-By-Host","panelIndex":19,"row":23,"size_x":3,"size_y":2,"type":"visualization"},{"col":1,"id":"Web-Request-Header","panelIndex":26,"row":25,"size_x":3,"size_y":2,"type":"visualization"},{"col":4,"columns":["method","host","uri","referrer","user_agent","ip_src_addr","ip_dst_addr"],"id":"web-search","panelIndex":4,"row":25,"size_x":8,"size_y":6,"sort":["timestamp","desc"],"type":"search"},{"col":1,"id":"HTTP(S)-Requests","panelIndex":17,"row":27,"size_x":3,"size_y":2,"type":"visualization"},{"col":1,"id":"DNS-Requests-Header","panelIndex":29,"row":31,"size_x":3,"size_y":2,"type":"visualization"},{"col":4,"columns":["query","qtype_name","answers","ip_src_addr","ip_dst_addr"],"id":"dns-search","panelIndex":5,"row":31,"size_x":8,"size_y":6,"sort":["timestamp","desc"],"type":"search"},{"col":1,"id":"DNS-Request(s)","panelIndex":14,"row":33,"size_x":3,"size_y":2,"type":"visualization"},{"col":1,"id":"Web-Request-Type","panelIndex":33,"row":29,"size_x":3,"size_y":2,"type":"visualization"}]
p364
sVoptionsJSON
p365
V{"darkTheme":false}
p366
sVversion
p367
I1
sVkibanaSavedObjectMeta
p368
(dp369
VsearchSourceJSON
p370
V{"filter":[{"query":{"query_string":{"analyze_wildcard":true,"query":"*"}}}]}
p371
sssV_index
p372
V.kibana
p373
sa(dp374
V_score
p375
F1
sV_type
p376
Vvisualization
p377
sV_id
p378
VSnort-Header
p379
sV_source
p380
(dp381
VvisState
p382
V{"title":"Snort","type":"markdown","params":{"markdown":"[Snort](https://www.snort.org/) is a Network Intrusion Detection System (NIDS) that is being used to generate alerts identifying known bad events.  Snort relies on a fixed set of rules that act as signatures for identifying abnormal events."},"aggs":[],"listeners":{}}
p383
sVdescription
p384
V
sVtitle
p385
VSnort
p386
sVuiStateJSON
p387
V{}
p388
sVversion
p389
I1
sVkibanaSavedObjectMeta
p390
(dp391
VsearchSourceJSON
p392
V{"query":{"query_string":{"query":"*","analyze_wildcard":true}},"filter":[]}
p393
sssV_index
p394
V.kibana
p395
sa(dp396
V_score
p397
F1
sV_type
p398
Vvisualization
p399
sV_id
p400
VYAF-Flow(s)
p401
sV_source
p402
(dp403
VvisState
p404
V{"title":"YAF Flows","type":"metric","params":{"handleNoResults":true,"fontSize":60},"aggs":[{"id":"1","type":"count","schema":"metric","params":{}}],"listeners":{}}
p405
sVdescription
p406
V
sVtitle
p407
VYAF Flows
p408
sVuiStateJSON
p409
V{}
p410
sVversion
p411
I1
sVkibanaSavedObjectMeta
p412
(dp413
VsearchSourceJSON
p414
V{"index":"yaf*","query":{"query_string":{"query":"*","analyze_wildcard":true}},"filter":[]}
p415
sssV_index
p416
V.kibana
p417
sa(dp418
V_score
p419
F1
sV_type
p420
Vvisualization
p421
sV_id
p422
VTop-DNS-Query
p423
sV_source
p424
(dp425
VvisState
p426
V{"title":"Top DNS Query","type":"table","params":{"perPage":10,"showPartialRows":false,"showMeticsAtAllLevels":false},"aggs":[{"id":"1","type":"count","schema":"metric","params":{}},{"id":"2","type":"terms","schema":"bucket","params":{"field":"query","size":10,"order":"desc","orderBy":"1"}}],"listeners":{}}
p427
sVdescription
p428
V
sVtitle
p429
VTop DNS Query
p430
sVuiStateJSON
p431
V{}
p432
sVversion
p433
I1
sVkibanaSavedObjectMeta
p434
(dp435
VsearchSourceJSON
p436
V{"index":"bro*","query":{"query_string":{"query":"*","analyze_wildcard":true}},"filter":[]}
p437
sssV_index
p438
V.kibana
p439
sa(dp440
V_score
p441
F1
sV_type
p442
Vvisualization
p443
sV_id
p444
VEvent-Types
p445
sV_source
p446
(dp447
VvisState
p448
V{"title":"Event Sources","type":"pie","params":{"shareYAxis":true,"addTooltip":true,"addLegend":true,"isDonut":false},"aggs":[{"id":"1","type":"count","schema":"metric","params":{}},{"id":"2","type":"terms","schema":"segment","params":{"field":"source:type","size":10,"order":"desc","orderBy":"1"}}],"listeners":{}}
p449
sVdescription
p450
V
sVtitle
p451
VEvent Sources
p452
sVuiStateJSON
p453
V{}
p454
sVversion
p455
I1
sVkibanaSavedObjectMeta
p456
(dp457
VsearchSourceJSON
p458
V{"index":["yaf*","bro*","snort*"],"query":{"query_string":{"query":"*","analyze_wildcard":true}},"filter":[]}
p459
sssV_index
p460
V.kibana
p461
sa(dp462
V_score
p463
F1
sV_type
p464
Vvisualization
p465
sV_id
p466
VTotal-Events
p467
sV_source
p468
(dp469
VvisState
p470
V{"title":"Event Count","type":"metric","params":{"handleNoResults":true,"fontSize":60},"aggs":[{"id":"1","type":"count","schema":"metric","params":{"customLabel":"Events"}}],"listeners":{}}
p471
sVdescription
p472
V
sVtitle
p473
VEvent Count
p474
sVuiStateJSON
p475
V{}
p476
sVversion
p477
I1
sVkibanaSavedObjectMeta
p478
(dp479
VsearchSourceJSON
p480
V{"index":["yaf*","bro*","snort*"],"query":{"query_string":{"query":"*","analyze_wildcard":true}},"filter":[]}
p481
sssV_index
p482
V.kibana
p483
sa(dp484
V_score
p485
F1
sV_type
p486
Vvisualization
p487
sV_id
p488
VUnique-Location(s)
p489
sV_source
p490
(dp491
VvisState
p492
V{"title":"Geo-IP Locations","type":"metric","params":{"handleNoResults":true,"fontSize":60},"aggs":[{"id":"1","type":"cardinality","schema":"metric","params":{"field":"enrichments:geo:ip_src_addr:locID","customLabel":"Unique Location(s)"}}],"listeners":{}}
p493
sVdescription
p494
V
sVtitle
p495
VGeo-IP Locations
p496
sVuiStateJSON
p497
V{}
p498
sVversion
p499
I1
sVkibanaSavedObjectMeta
p500
(dp501
VsearchSourceJSON
p502
V{"index":["yaf*","bro*","snort*"],"query":{"query_string":{"query":"*","analyze_wildcard":true}},"filter":[]}
p503
sssV_index
p504
V.kibana
p505
sa(dp506
V_score
p507
F1
sV_type
p508
Vvisualization
p509
sV_id
p510
VTop-Alerts-By-Host
p511
sV_source
p512
(dp513
VvisState
p514
V{"title":"Top Alerts By Host","type":"table","params":{"perPage":10,"showPartialRows":false,"showMeticsAtAllLevels":false},"aggs":[{"id":"1","type":"count","schema":"metric","params":{}},{"id":"2","type":"terms","schema":"bucket","params":{"field":"ip_src_addr","size":5,"order":"desc","orderBy":"1","customLabel":"Source"}},{"id":"3","type":"terms","schema":"bucket","params":{"field":"ip_dst_addr","size":5,"order":"desc","orderBy":"1","customLabel":"Destination"}}],"listeners":{}}
p515
sVdescription
p516
V
sVtitle
p517
VTop Alerts By Host
p518
sVuiStateJSON
p519
V{}
p520
sVversion
p521
I1
sVsavedSearchId
p522
Vsnort-search
p523
sVkibanaSavedObjectMeta
p524
(dp525
VsearchSourceJSON
p526
V{"filter":[]}
p527
sssV_index
p528
V.kibana
p529
sa(dp530
V_score
p531
F1
sV_type
p532
Vvisualization
p533
sV_id
p534
VTotal-Error-Messages
p535
sV_source
p536
(dp537
VvisState
p538
V{"title":"Total Errored Messages","type":"metric","params":{"handleNoResults":true,"fontSize":60},"aggs":[{"id":"1","type":"count","schema":"metric","params":{"customLabel":"Total Error Messages"}}],"listeners":{}}
p539
sVdescription
p540
V
sVtitle
p541
VTotal Error Messages
p542
sVuiStateJSON
p543
V{}
p544
sVversion
p545
I1
sVkibanaSavedObjectMeta
p546
(dp547
VsearchSourceJSON
p548
V{"index":"error*","query":{"query_string":{"query":"*","analyze_wildcard":true}},"filter":[]}
p549
sssV_index
p550
V.kibana
p551
sa(dp552
V_score
p553
F1
sV_type
p554
Vvisualization
p555
sV_id
p556
VErrors-By-Source-Type
p557
sV_source
p558
(dp559
VvisState
p560
V{\u000a  "title": "Errors By Source Type",\u000a  "type": "histogram",\u000a  "params": {\u000a    "shareYAxis": true,\u000a    "addTooltip": true,\u000a    "addLegend": true,\u000a    "scale": "linear",\u000a    "mode": "grouped",\u000a    "times": [],\u000a    "addTimeMarker": false,\u000a    "defaultYExtents": false,\u000a    "setYExtents": false,\u000a    "yAxis": {}\u000a  },\u000a  "aggs": [\u000a    {\u000a      "id": "1",\u000a      "type": "count",\u000a      "schema": "metric",\u000a      "params": {\u000a        "customLabel": "Count"\u000a      }\u000a    },\u000a    {\u000a      "id": "2",\u000a      "type": "terms",\u000a      "schema": "segment",\u000a      "params": {\u000a        "field": "failed_sensor_type",\u000a        "size": 5,\u000a        "order": "desc",\u000a        "orderBy": "1"\u000a      }\u000a    },\u000a    {\u000a      "id": "4",\u000a      "type": "cardinality",\u000a      "schema": "metric",\u000a      "params": {\u000a        "field": "error_hash",\u000a        "customLabel": "Unique Datapoint Count"\u000a      }\u000a    }\u000a  ],\u000a  "listeners": {}\u000a}
p561
sVdescription
p562
V
sVtitle
p563
VErrors By Source Type
p564
sVuiStateJSON
p565
V{\u000a  "vis": {\u000a    "colors": {\u000a      "Unique Datapoint Count": "#0A50A1",\u000a      "Count": "#5195CE"\u000a    }\u000a  }\u000a}
p566
sVversion
p567
I1
sVkibanaSavedObjectMeta
p568
(dp569
VsearchSourceJSON
p570
V{\u000a  "index": "error*",\u000a  "query": {\u000a    "query_string": {\u000a      "analyze_wildcard": true,\u000a      "query": "*"\u000a    }\u000a  },\u000a  "filter": []\u000a}
p571
sssV_index
p572
V.kibana
p573
sa(dp574
V_score
p575
F1
sV_type
p576
Vindex-pattern
p577
sV_id
p578
Vsnort*
p579
sV_source
p580
(dp581
Vfields
p582
V[{"name":"msg","type":"string","count":0,"scripted":false,"indexed":true,"analyzed":true,"doc_values":false},{"name":"enrichments:geo:ip_dst_addr:location_point","type":"geo_point","count":0,"scripted":false,"indexed":true,"analyzed":false,"doc_values":true},{"name":"dgmlen","type":"number","count":0,"scripted":false,"indexed":true,"analyzed":false,"doc_values":true},{"name":"enrichments:geo:ip_src_addr:longitude","type":"number","count":0,"scripted":false,"indexed":true,"analyzed":false,"doc_values":true},{"name":"enrichmentjoinbolt:joiner:ts","type":"date","count":0,"scripted":false,"indexed":true,"analyzed":false,"doc_values":true},{"name":"enrichments:geo:ip_src_addr:dmaCode","type":"string","count":0,"scripted":false,"indexed":true,"analyzed":false,"doc_values":true},{"name":"adapter:geoadapter:begin:ts","type":"date","count":0,"scripted":false,"indexed":true,"analyzed":false,"doc_values":true},{"name":"tcpack","type":"string","count":0,"scripted":false,"indexed":true,"analyzed":true,"doc_values":false},{"name":"protocol","type":"string","count":0,"scripted":false,"indexed":true,"analyzed":false,"doc_values":true},{"name":"adapter:threatinteladapter:end:ts","type":"date","count":0,"scripted":false,"indexed":true,"analyzed":false,"doc_values":true},{"name":"enrichments:geo:ip_src_addr:locID","type":"string","count":0,"scripted":false,"indexed":true,"analyzed":false,"doc_values":true},{"name":"original_string","type":"string","count":0,"scripted":false,"indexed":true,"analyzed":true,"doc_values":false},{"name":"adapter:geoadapter:end:ts","type":"date","count":0,"scripted":false,"indexed":true,"analyzed":false,"doc_values":true},{"name":"id","type":"number","count":0,"scripted":false,"indexed":true,"analyzed":false,"doc_values":true},{"name":"enrichments:geo:ip_src_addr:location_point","type":"geo_point","count":0,"scripted":false,"indexed":true,"analyzed":false,"doc_values":true},{"name":"enrichmentsplitterbolt:splitter:end:ts","type":"date","count":0,"scripted":false,"indexed":true,"analyzed":false,"doc_values":true},{"name":"enrichments:geo:ip_dst_addr:city","type":"string","count":0,"scripted":false,"indexed":true,"analyzed":false,"doc_values":true},{"name":"adapter:hostfromjsonlistadapter:begin:ts","type":"date","count":0,"scripted":false,"indexed":true,"analyzed":false,"doc_values":true},{"name":"enrichments:geo:ip_src_addr:postalCode","type":"string","count":0,"scripted":false,"indexed":true,"analyzed":false,"doc_values":true},{"name":"ethlen","type":"string","count":0,"scripted":false,"indexed":true,"analyzed":false,"doc_values":true},{"name":"threat:triage:level","type":"number","count":0,"scripted":false,"indexed":true,"analyzed":false,"doc_values":true},{"name":"tcpflags","type":"string","count":0,"scripted":false,"indexed":true,"analyzed":true,"doc_values":false},{"name":"adapter:threatinteladapter:begin:ts","type":"date","count":0,"scripted":false,"indexed":true,"analyzed":false,"doc_values":true},{"name":"_source","type":"_source","count":0,"scripted":false,"indexed":false,"analyzed":false,"doc_values":false},{"name":"enrichments:geo:ip_dst_addr:country","type":"string","count":0,"scripted":false,"indexed":true,"analyzed":false,"doc_values":true},{"name":"enrichments:geo:ip_dst_addr:locID","type":"string","count":0,"scripted":false,"indexed":true,"analyzed":false,"doc_values":true},{"name":"_index","type":"string","count":0,"scripted":false,"indexed":false,"analyzed":false,"doc_values":false},{"name":"ip_dst_port","type":"number","count":0,"scripted":false,"indexed":true,"analyzed":false,"doc_values":true},{"name":"threatinteljoinbolt:joiner:ts","type":"date","count":0,"scripted":false,"indexed":true,"analyzed":false,"doc_values":true},{"name":"enrichments:geo:ip_dst_addr:dmaCode","type":"string","count":0,"scripted":false,"indexed":true,"analyzed":false,"doc_values":true},{"name":"sig_rev","type":"string","count":0,"scripted":false,"indexed":true,"analyzed":true,"doc_values":false},{"name":"ethsrc","type":"string","count":0,"scripted":false,"indexed":true,"analyzed":false,"doc_values":true},{"name":"tcpseq","type":"string","count":0,"scripted":false,"indexed":true,"analyzed":true,"doc_values":false},{"name":"enrichmentsplitterbolt:splitter:begin:ts","type":"date","count":0,"scripted":false,"indexed":true,"analyzed":false,"doc_values":true},{"name":"tcpwindow","type":"string","count":0,"scripted":false,"indexed":true,"analyzed":true,"doc_values":false},{"name":"enrichments:geo:ip_dst_addr:latitude","type":"number","count":0,"scripted":false,"indexed":true,"analyzed":false,"doc_values":true},{"name":"source:type","type":"string","count":0,"scripted":false,"indexed":true,"analyzed":false,"doc_values":true},{"name":"ip_dst_addr","type":"ip","count":0,"scripted":false,"indexed":true,"analyzed":false,"doc_values":true},{"name":"adapter:hostfromjsonlistadapter:end:ts","type":"date","count":0,"scripted":false,"indexed":true,"analyzed":false,"doc_values":true},{"name":"tos","type":"number","count":0,"scripted":false,"indexed":true,"analyzed":false,"doc_values":true},{"name":"ip_src_addr","type":"ip","count":0,"scripted":false,"indexed":true,"analyzed":false,"doc_values":true},{"name":"threatintelsplitterbolt:splitter:end:ts","type":"date","count":0,"scripted":false,"indexed":true,"analyzed":false,"doc_values":true},{"name":"enrichments:geo:ip_src_addr:latitude","type":"number","count":0,"scripted":false,"indexed":true,"analyzed":false,"doc_values":true},{"name":"enrichments:geo:ip_dst_addr:longitude","type":"number","count":0,"scripted":false,"indexed":true,"analyzed":false,"doc_values":true},{"name":"timestamp","type":"date","count":0,"scripted":false,"indexed":true,"analyzed":false,"doc_values":true},{"name":"ethdst","type":"string","count":0,"scripted":false,"indexed":true,"analyzed":false,"doc_values":true},{"name":"enrichments:geo:ip_dst_addr:postalCode","type":"string","count":0,"scripted":false,"indexed":true,"analyzed":false,"doc_values":true},{"name":"is_alert","type":"boolean","count":0,"scripted":false,"indexed":true,"analyzed":false,"doc_values":true},{"name":"enrichments:geo:ip_src_addr:country","type":"string","count":0,"scripted":false,"indexed":true,"analyzed":false,"doc_values":true},{"name":"ttl","type":"number","count":0,"scripted":false,"indexed":true,"analyzed":false,"doc_values":true},{"name":"iplen","type":"number","count":0,"scripted":false,"indexed":true,"analyzed":false,"doc_values":true},{"name":"ip_src_port","type":"number","count":0,"scripted":false,"indexed":true,"analyzed":false,"doc_values":true},{"name":"threatintelsplitterbolt:splitter:begin:ts","type":"date","count":0,"scripted":false,"indexed":true,"analyzed":false,"doc_values":true},{"name":"sig_id","type":"number","count":0,"scripted":false,"indexed":true,"analyzed":false,"doc_values":true},{"name":"sig_generator","type":"string","count":0,"scripted":false,"indexed":true,"analyzed":false,"doc_values":true},{"name":"enrichments:geo:ip_src_addr:city","type":"string","count":0,"scripted":false,"indexed":true,"analyzed":false,"doc_values":true},{"name":"_id","type":"string","count":0,"scripted":false,"indexed":false,"analyzed":false,"doc_values":false},{"name":"_type","type":"string","count":0,"scripted":false,"indexed":false,"analyzed":false,"doc_values":false},{"name":"_score","type":"number","count":0,"scripted":false,"indexed":false,"analyzed":false,"doc_values":false}]
p583
sVtimeFieldName
p584
Vtimestamp
p585
sVtitle
p586
Vsnort*
p587
ssV_index
p588
V.kibana
p589
sa(dp590
V_score
p591
F1
sV_type
p592
Vindex-pattern
p593
sV_id
p594
Vyaf*
p595
sV_source
p596
(dp597
Vfields
p598
V[{"name":"enrichments:geo:ip_dst_addr:location_point","type":"geo_point","count":0,"scripted":false,"indexed":true,"analyzed":false,"doc_values":true},{"name":"isn","type":"string","count":0,"scripted":false,"indexed":true,"analyzed":false,"doc_values":true},{"name":"enrichmentjoinbolt:joiner:ts","type":"date","count":0,"scripted":false,"indexed":true,"analyzed":false,"doc_values":true},{"name":"dip","type":"string","count":0,"scripted":false,"indexed":true,"analyzed":false,"doc_values":true},{"name":"adapter:geoadapter:begin:ts","type":"date","count":0,"scripted":false,"indexed":true,"analyzed":false,"doc_values":true},{"name":"dp","type":"string","count":0,"scripted":false,"indexed":true,"analyzed":false,"doc_values":true},{"name":"protocol","type":"string","count":0,"scripted":false,"indexed":true,"analyzed":true,"doc_values":false},{"name":"rpkt","type":"number","count":0,"scripted":false,"indexed":true,"analyzed":false,"doc_values":true},{"name":"original_string","type":"string","count":0,"scripted":false,"indexed":true,"analyzed":true,"doc_values":false},{"name":"adapter:threatinteladapter:end:ts","type":"date","count":0,"scripted":false,"indexed":true,"analyzed":false,"doc_values":true},{"name":"adapter:geoadapter:end:ts","type":"date","count":0,"scripted":false,"indexed":true,"analyzed":false,"doc_values":true},{"name":"tag","type":"string","count":0,"scripted":false,"indexed":true,"analyzed":false,"doc_values":true},{"name":"app","type":"string","count":0,"scripted":false,"indexed":true,"analyzed":false,"doc_values":true},{"name":"oct","type":"number","count":0,"scripted":false,"indexed":true,"analyzed":false,"doc_values":true},{"name":"end_reason","type":"string","count":0,"scripted":false,"indexed":true,"analyzed":true,"doc_values":false},{"name":"enrichmentsplitterbolt:splitter:end:ts","type":"date","count":0,"scripted":false,"indexed":true,"analyzed":false,"doc_values":true},{"name":"enrichments:geo:ip_dst_addr:city","type":"string","count":0,"scripted":false,"indexed":true,"analyzed":false,"doc_values":true},{"name":"adapter:hostfromjsonlistadapter:begin:ts","type":"date","count":0,"scripted":false,"indexed":true,"analyzed":false,"doc_values":true},{"name":"start_time","type":"date","count":0,"scripted":false,"indexed":true,"analyzed":false,"doc_values":true},{"name":"riflags","type":"string","count":0,"scripted":false,"indexed":true,"analyzed":true,"doc_values":false},{"name":"proto","type":"string","count":0,"scripted":false,"indexed":true,"analyzed":false,"doc_values":true},{"name":"adapter:threatinteladapter:begin:ts","type":"date","count":0,"scripted":false,"indexed":true,"analyzed":false,"doc_values":true},{"name":"_source","type":"_source","count":0,"scripted":false,"indexed":false,"analyzed":false,"doc_values":false},{"name":"enrichments:geo:ip_dst_addr:country","type":"string","count":0,"scripted":false,"indexed":true,"analyzed":false,"doc_values":true},{"name":"enrichments:geo:ip_dst_addr:locID","type":"string","count":0,"scripted":false,"indexed":true,"analyzed":false,"doc_values":true},{"name":"iflags","type":"string","count":0,"scripted":false,"indexed":true,"analyzed":false,"doc_values":true},{"name":"_index","type":"string","count":0,"scripted":false,"indexed":false,"analyzed":false,"doc_values":false},{"name":"ip_dst_port","type":"number","count":0,"scripted":false,"indexed":true,"analyzed":false,"doc_values":true},{"name":"enrichments:geo:ip_dst_addr:dmaCode","type":"string","count":0,"scripted":false,"indexed":true,"analyzed":false,"doc_values":true},{"name":"threatinteljoinbolt:joiner:ts","type":"date","count":0,"scripted":false,"indexed":true,"analyzed":false,"doc_values":true},{"name":"uflags","type":"string","count":0,"scripted":false,"indexed":true,"analyzed":false,"doc_values":true},{"name":"enrichmentsplitterbolt:splitter:begin:ts","type":"date","count":0,"scripted":false,"indexed":true,"analyzed":false,"doc_values":true},{"name":"enrichments:geo:ip_dst_addr:latitude","type":"number","count":0,"scripted":false,"indexed":true,"analyzed":false,"doc_values":true},{"name":"duration","type":"number","count":0,"scripted":false,"indexed":true,"analyzed":false,"doc_values":true},{"name":"source:type","type":"string","count":0,"scripted":false,"indexed":true,"analyzed":false,"doc_values":true},{"name":"ip_dst_addr","type":"ip","count":0,"scripted":false,"indexed":true,"analyzed":false,"doc_values":true},{"name":"pkt","type":"number","count":0,"scripted":false,"indexed":true,"analyzed":false,"doc_values":true},{"name":"adapter:hostfromjsonlistadapter:end:ts","type":"date","count":0,"scripted":false,"indexed":true,"analyzed":false,"doc_values":true},{"name":"ruflags","type":"string","count":0,"scripted":false,"indexed":true,"analyzed":false,"doc_values":true},{"name":"roct","type":"number","count":0,"scripted":false,"indexed":true,"analyzed":false,"doc_values":true},{"name":"sip","type":"string","count":0,"scripted":false,"indexed":true,"analyzed":false,"doc_values":true},{"name":"sp","type":"string","count":0,"scripted":false,"indexed":true,"analyzed":false,"doc_values":true},{"name":"ip_src_addr","type":"ip","count":0,"scripted":false,"indexed":true,"analyzed":false,"doc_values":true},{"name":"rtag","type":"string","count":0,"scripted":false,"indexed":true,"analyzed":false,"doc_values":true},{"name":"threatintelsplitterbolt:splitter:end:ts","type":"date","count":0,"scripted":false,"indexed":true,"analyzed":false,"doc_values":true},{"name":"enrichments:geo:ip_dst_addr:longitude","type":"number","count":0,"scripted":false,"indexed":true,"analyzed":false,"doc_values":true},{"name":"timestamp","type":"date","count":0,"scripted":false,"indexed":true,"analyzed":false,"doc_values":true},{"name":"end-reason","type":"string","count":0,"scripted":false,"indexed":true,"analyzed":true,"doc_values":false},{"name":"risn","type":"string","count":0,"scripted":false,"indexed":true,"analyzed":false,"doc_values":true},{"name":"end_time","type":"date","count":0,"scripted":false,"indexed":true,"analyzed":false,"doc_values":true},{"name":"enrichments:geo:ip_dst_addr:postalCode","type":"string","count":0,"scripted":false,"indexed":true,"analyzed":false,"doc_values":true},{"name":"rtt","type":"number","count":0,"scripted":false,"indexed":true,"analyzed":false,"doc_values":true},{"name":"ip_src_port","type":"number","count":0,"scripted":false,"indexed":true,"analyzed":false,"doc_values":true},{"name":"threatintelsplitterbolt:splitter:begin:ts","type":"date","count":0,"scripted":false,"indexed":true,"analyzed":false,"doc_values":true},{"name":"_id","type":"string","count":0,"scripted":false,"indexed":false,"analyzed":false,"doc_values":false},{"name":"_type","type":"string","count":0,"scripted":false,"indexed":false,"analyzed":false,"doc_values":false},{"name":"_score","type":"number","count":0,"scripted":false,"indexed":false,"analyzed":false,"doc_values":false}]
p599
sVtimeFieldName
p600
Vtimestamp
p601
sVtitle
p602
Vyaf*
p603
ssV_index
p604
V.kibana
p605
sa(dp606
V_score
p607
F1
sV_type
p608
Vsearch
p609
sV_id
p610
Vweb-search
p611
sV_source
p612
(dp613
Vsort
p614
(lp615
Vtimestamp
p616
aVdesc
p617
asVhits
p618
I0
sVdescription
p619
V
sVtitle
p620
VWeb Requests
p621
sVversion
p622
I1
sVkibanaSavedObjectMeta
p623
(dp624
VsearchSourceJSON
p625
V{"index":"bro*","query":{"query_string":{"query":"protocol: http OR protocol: https","analyze_wildcard":true}},"filter":[],"highlight":{"pre_tags":["@kibana-highlighted-field@"],"post_tags":["@/kibana-highlighted-field@"],"fields":{"*":{}},"require_field_match":false,"fragment_size":2147483647}}
p626
ssVcolumns
p627
(lp628
Vmethod
p629
aVhost
p630
aVuri
p631
aVreferrer
p632
aVip_src_addr
p633
aVip_dst_addr
p634
assV_index
p635
V.kibana
p636
sa(dp637
V_score
p638
F1
sV_type
p639
Vvisualization
p640
sV_id
p641
VLocation-Header
p642
sV_source
p643
(dp644
VvisState
p645
V{"title":"Enrichment","type":"markdown","params":{"markdown":"Apache Metron can perform real-time enrichment of telemetry data as it is consumed. To highlight this feature, all of the IP address fields collected from the default sensor suite were used to perform geo-ip lookups.  This data was then used to pinpoint each location on the map."},"aggs":[],"listeners":{}}
p646
sVdescription
p647
V
sVtitle
p648
VEnrichment
p649
sVuiStateJSON
p650
V{}
p651
sVversion
p652
I1
sVkibanaSavedObjectMeta
p653
(dp654
VsearchSourceJSON
p655
V{"query":{"query_string":{"query":"*","analyze_wildcard":true}},"filter":[]}
p656
sssV_index
p657
V.kibana
p658
sa(dp659
V_score
p660
F1
sV_type
p661
Vvisualization
p662
sV_id
p663
VSnort-Alert-Types
p664
sV_source
p665
(dp666
VvisState
p667
V{"title":"Snort Alert Types","type":"metric","params":{"handleNoResults":true,"fontSize":60},"aggs":[{"id":"1","type":"cardinality","schema":"metric","params":{"field":"sig_id","customLabel":"Alert Type(s)"}}],"listeners":{}}
p668
sVdescription
p669
V
sVtitle
p670
VSnort Alert Types
p671
sVuiStateJSON
p672
V{}
p673
sVversion
p674
I1
sVkibanaSavedObjectMeta
p675
(dp676
VsearchSourceJSON
p677
V{"index":"snort*","query":{"query_string":{"query":"*","analyze_wildcard":true}},"filter":[]}
p678
sssV_index
p679
V.kibana
p680
sa(dp681
V_score
p682
F1
sV_type
p683
Vvisualization
p684
sV_id
p685
VFrequent-DNS-Queries
p686
sV_source
p687
(dp688
VvisState
p689
V{"title":"Frequent DNS Requests","type":"table","params":{"perPage":10,"showPartialRows":false,"showMeticsAtAllLevels":false},"aggs":[{"id":"1","type":"count","schema":"metric","params":{}},{"id":"2","type":"terms","schema":"bucket","params":{"field":"query","size":5,"order":"desc","orderBy":"1"}}],"listeners":{}}
p690
sVdescription
p691
V
sVtitle
p692
VFrequent DNS Requests
p693
sVuiStateJSON
p694
V{}
p695
sVversion
p696
I1
sVkibanaSavedObjectMeta
p697
(dp698
VsearchSourceJSON
p699
V{"index":"bro*","query":{"query_string":{"query":"*","analyze_wildcard":true}},"filter":[]}
p700
sssV_index
p701
V.kibana
p702
sa(dp703
V_score
p704
F1
sV_type
p705
Vvisualization
p706
sV_id
p707
VDNS-Request(s)
p708
sV_source
p709
(dp710
VvisState
p711
V{"title":"DNS Requests","type":"metric","params":{"handleNoResults":true,"fontSize":60},"aggs":[{"id":"1","type":"count","schema":"metric","params":{}}],"listeners":{}}
p712
sVdescription
p713
V
sVtitle
p714
VDNS Requests
p715
sVuiStateJSON
p716
V{}
p717
sVversion
p718
I1
sVsavedSearchId
p719
Vdns-search
p720
sVkibanaSavedObjectMeta
p721
(dp722
VsearchSourceJSON
p723
V{"filter":[]}
p724
sssV_index
p725
V.kibana
p726
sa(dp727
V_score
p728
F1
sV_type
p729
Vvisualization
p730
sV_id
p731
VHTTP(S)-Requests
p732
sV_source
p733
(dp734
VvisState
p735
V{"title":"Web Requests","type":"metric","params":{"handleNoResults":true,"fontSize":60},"aggs":[{"id":"1","type":"count","schema":"metric","params":{}}],"listeners":{}}
p736
sVdescription
p737
V
sVtitle
p738
VWeb Requests
p739
sVuiStateJSON
p740
V{}
p741
sVversion
p742
I1
sVsavedSearchId
p743
Vweb-search
p744
sVkibanaSavedObjectMeta
p745
(dp746
VsearchSourceJSON
p747
V{"filter":[]}
p748
sssV_index
p749
V.kibana
p750
sa(dp751
V_score
p752
F1
sV_type
p753
Vvisualization
p754
sV_id
p755
VErrors-Over-Time
p756
sV_source
p757
(dp758
VvisState
p759
V{"title":"Error Over Time","type":"line","params":{"shareYAxis":true,"addTooltip":true,"addLegend":true,"showCircles":true,"smoothLines":false,"interpolate":"linear","scale":"linear","drawLinesBetweenPoints":true,"radiusRatio":9,"times":[],"addTimeMarker":true,"defaultYExtents":false,"setYExtents":false,"yAxis":{"min":0}},"aggs":[{"id":"1","type":"count","schema":"metric","params":{}},{"id":"2","type":"date_histogram","schema":"segment","params":{"field":"timestamp","interval":"auto","customInterval":"2h","min_doc_count":1,"extended_bounds":{}}}],"listeners":{}}
p760
sVdescription
p761
V
sVtitle
p762
VErrors Over Time
p763
sVuiStateJSON
p764
V{}
p765
sVversion
p766
I1
sVkibanaSavedObjectMeta
p767
(dp768
VsearchSourceJSON
p769
V{"index":"error*","query":{"query_string":{"query":"*","analyze_wildcard":true}},"filter":[]}
p770
sssV_index
p771
V.kibana
p772
sa(dp773
V_score
p774
F1
sV_type
p775
Vvisualization
p776
sV_id
p777
VError-Source-Proportion
p778
sV_source
p779
(dp780
VvisState
p781
V{\u000a  "title": "Error Sensor Proportion",\u000a  "type": "pie",\u000a  "params": {\u000a    "shareYAxis": true,\u000a    "addTooltip": true,\u000a    "addLegend": true,\u000a    "isDonut": false\u000a  },\u000a  "aggs": [\u000a    {\u000a      "id": "1",\u000a      "type": "count",\u000a      "schema": "metric",\u000a      "params": {}\u000a    },\u000a    {\u000a      "id": "2",\u000a      "type": "terms",\u000a      "schema": "segment",\u000a      "params": {\u000a        "field": "failed_sensor_type",\u000a        "size": 5,\u000a        "order": "desc",\u000a        "orderBy": "1",\u000a        "customLabel": "Sensor"\u000a      }\u000a    }\u000a  ],\u000a  "listeners": {}\u000a}
p782
sVdescription
p783
V
sVtitle
p784
VError Source Proportion
p785
sVuiStateJSON
p786
V{}
p787
sVversion
p788
I1
sVkibanaSavedObjectMeta
p789
(dp790
VsearchSourceJSON
p791
V{\u000a  "index": "error*",\u000a  "query": {\u000a    "query_string": {\u000a      "query": "*",\u000a      "analyze_wildcard": true\u000a    }\u000a  },\u000a  "filter": []\u000a}
p792
sssV_index
p793
V.kibana
p794
sa(dp795
V_score
p796
F1
sV_type
p797
Vindex-pattern
p798
sV_id
p799
Verror*
p800
sV_source
p801
(dp802
Vfields
p803
V[{"name":"exception","type":"string","count":0,"scripted":false,"indexed":true,"analyzed":false,"doc_values":true},{"name":"stack","type":"string","count":0,"scripted":false,"indexed":true,"analyzed":false,"doc_values":true},{"name":"_index","type":"string","count":0,"scripted":false,"indexed":false,"analyzed":false,"doc_values":false},{"name":"error_hash","type":"string","count":1,"scripted":false,"indexed":true,"analyzed":false,"doc_values":true},{"name":"raw_message","type":"string","count":0,"scripted":false,"indexed":true,"analyzed":false,"doc_values":true},{"name":"message","type":"string","count":0,"scripted":false,"indexed":true,"analyzed":false,"doc_values":true},{"name":"failed_sensor_type","type":"string","count":1,"scripted":false,"indexed":true,"analyzed":false,"doc_values":true},{"name":"hostname","type":"string","count":0,"scripted":false,"indexed":true,"analyzed":false,"doc_values":true},{"name":"source:type","type":"string","count":0,"scripted":false,"indexed":true,"analyzed":true,"doc_values":false},{"name":"error_type","type":"string","count":0,"scripted":false,"indexed":true,"analyzed":false,"doc_values":true},{"name":"error_fields","type":"string","count":0,"scripted":false,"indexed":true,"analyzed":false,"doc_values":true},{"name":"_source","type":"_source","count":0,"scripted":false,"indexed":false,"analyzed":false,"doc_values":false},{"name":"raw_message_bytes","type":"string","count":0,"scripted":false,"indexed":false,"analyzed":false,"doc_values":false},{"name":"timestamp","type":"date","count":0,"scripted":false,"indexed":true,"analyzed":false,"doc_values":true},{"name":"_id","type":"string","count":0,"scripted":false,"indexed":false,"analyzed":false,"doc_values":false},{"name":"_type","type":"string","count":0,"scripted":false,"indexed":false,"analyzed":false,"doc_values":false},{"name":"_score","type":"number","count":0,"scripted":false,"indexed":false,"analyzed":false,"doc_values":false}]
p804
sVtimeFieldName
p805
Vtimestamp
p806
sVtitle
p807
Verror*
p808
ssV_index
p809
V.kibana
p810
sa(dp811
V_score
p812
F1
sV_type
p813
Vdashboard
p814
sV_id
p815
VMetron-Error-Dashboard
p816
sV_source
p817
(dp818
Vhits
p819
I0
sVtimeRestore
p820
I00
sVdescription
p821
V
sVtitle
p822
VMetron Error Dashboard
p823
sVuiStateJSON
p824
V{"P-2":{"vis":{"legendOpen":true}}}
p825
sVpanelsJSON
p826
V[{"col":5,"id":"Errors-By-Error-Type","panelIndex":2,"row":7,"size_x":8,"size_y":3,"type":"visualization"},{"col":1,"id":"Error-Source-Proportion","panelIndex":3,"row":7,"size_x":4,"size_y":3,"type":"visualization"},{"col":5,"id":"Errors-By-Source-Type","panelIndex":4,"row":10,"size_x":8,"size_y":3,"type":"visualization"},{"col":1,"id":"Error-Type-Proportion","panelIndex":5,"row":10,"size_x":4,"size_y":3,"type":"visualization"},{"col":1,"id":"Errors-Over-Time","panelIndex":14,"row":3,"size_x":12,"size_y":4,"type":"visualization"},{"col":8,"id":"Unique-Error-Messages","panelIndex":19,"row":1,"size_x":4,"size_y":2,"type":"visualization"},{"col":3,"id":"Total-Error-Messages","panelIndex":20,"row":1,"size_x":4,"size_y":2,"type":"visualization"},{"col":1,"columns":["failed_sensor_type","error_type","exception","hostname","message","raw_message","error_hash"],"id":"Errors","panelIndex":21,"row":13,"size_x":12,"size_y":7,"sort":["timestamp","desc"],"type":"search"}]
p827
sVoptionsJSON
p828
V{"darkTheme":false}
p829
sVversion
p830
I1
sVkibanaSavedObjectMeta
p831
(dp832
VsearchSourceJSON
p833
V{"filter":[{"query":{"query_string":{"analyze_wildcard":true,"query":"*"}}}]}
p834
sssV_index
p835
V.kibana
p836
sa(dp837
V_score
p838
F1
sV_type
p839
Vconfig
p840
sV_id
p841
V4.5.3
p842
sV_source
p843
(dp844
VbuildNum
p845
I9892
sVdefaultIndex
p846
Vbro*
p847
ssV_index
p848
V.kibana
p849
sa(dp850
V_score
p851
F1
sV_type
p852
Vsearch
p853
sV_id
p854
Vdns-search
p855
sV_source
p856
(dp857
Vsort
p858
(lp859
Vtimestamp
p860
aVdesc
p861
asVhits
p862
I0
sVdescription
p863
V
sVtitle
p864
VDNS Requests
p865
sVversion
p866
I1
sVkibanaSavedObjectMeta
p867
(dp868
VsearchSourceJSON
p869
V{"index":"bro*","query":{"query_string":{"query":"protocol: dns","analyze_wildcard":true}},"filter":[],"highlight":{"pre_tags":["@kibana-highlighted-field@"],"post_tags":["@/kibana-highlighted-field@"],"fields":{"*":{}},"require_field_match":false,"fragment_size":2147483647}}
p870
ssVcolumns
p871
(lp872
Vquery
p873
aVqtype_name
p874
aVanswers
p875
aVip_src_addr
p876
aVip_dst_addr
p877
assV_index
p878
V.kibana
p879
sa(dp880
V_score
p881
F1
sV_type
p882
Vvisualization
p883
sV_id
p884
VDNS-Requests-Header
p885
sV_source
p886
(dp887
VvisState
p888
V{"aggs":[],"listeners":{},"params":{"markdown":"[Bro](https://www.bro.org/) is extracting DNS requests and responses being made over the network. Understanding who is making those requests, the frequency, and types can provide a deep understanding of the actors present on the network."},"title":"DNS Requests","type":"markdown"}
p889
sVdescription
p890
V
sVtitle
p891
VDNS Requests
p892
sVuiStateJSON
p893
V{}
p894
sVversion
p895
I1
sVkibanaSavedObjectMeta
p896
(dp897
VsearchSourceJSON
p898
V{"query":{"query_string":{"analyze_wildcard":true,"query":"*"}},"filter":[]}
p899
sssV_index
p900
V.kibana
p901
sa(dp902
V_score
p903
F1
sV_type
p904
Vvisualization
p905
sV_id
p906
VYAF-Flows-Header
p907
sV_source
p908
(dp909
VvisState
p910
V{"title":"YAF","type":"markdown","params":{"markdown":"[YAF](https://tools.netsa.cert.org/yaf/yaf.html) can be used to generate Netflow-like flow records.  These flow records provide significant visibility of the actors communicating over the target network."},"aggs":[],"listeners":{}}
p911
sVdescription
p912
V
sVtitle
p913
VYAF
p914
sVuiStateJSON
p915
V{}
p916
sVversion
p917
I1
sVkibanaSavedObjectMeta
p918
(dp919
VsearchSourceJSON
p920
V{"query":{"query_string":{"analyze_wildcard":true,"query":"*"}},"filter":[]}
p921
sssV_index
p922
V.kibana
p923
sa(dp924
V_score
p925
F1
sV_type
p926
Vvisualization
p927
sV_id
p928
VTop-5-Exceptions
p929
sV_source
p930
(dp931
VvisState
p932
V{"title":"Top-5 Exceptions","type":"histogram","params":{"shareYAxis":true,"addTooltip":true,"addLegend":true,"scale":"linear","mode":"stacked","times":[],"addTimeMarker":false,"defaultYExtents":false,"setYExtents":false,"yAxis":{}},"aggs":[{"id":"1","type":"count","schema":"metric","params":{}},{"id":"2","type":"terms","schema":"segment","params":{"field":"exception","size":5,"order":"desc","orderBy":"1","customLabel":"Exceptions"}}],"listeners":{}}
p933
sVdescription
p934
V
sVtitle
p935
VTop-5 Exceptions
p936
sVuiStateJSON
p937
V{}
p938
sVversion
p939
I1
sVkibanaSavedObjectMeta
p940
(dp941
VsearchSourceJSON
p942
V{"index":"error*","query":{"query_string":{"query":"*","analyze_wildcard":true}},"filter":[]}
p943
sssV_index
p944
V.kibana
p945
sa(dp946
V_score
p947
F1
sV_type
p948
Vvisualization
p949
sV_id
p950
VFrequent-DNS-Requests
p951
sV_source
p952
(dp953
VvisState
p954
V{"title":"Frequent DNS Requests","type":"table","params":{"perPage":10,"showPartialRows":false,"showMeticsAtAllLevels":false},"aggs":[{"id":"1","type":"count","schema":"metric","params":{}},{"id":"2","type":"terms","schema":"bucket","params":{"field":"query","size":5,"order":"desc","orderBy":"1","customLabel":"DNS Query"}}],"listeners":{}}
p955
sVdescription
p956
V
sVtitle
p957
VFrequent DNS Requests
p958
sVuiStateJSON
p959
V{}
p960
sVversion
p961
I1
sVkibanaSavedObjectMeta
p962
(dp963
VsearchSourceJSON
p964
V{"index":"bro*","query":{"query_string":{"query":"*","analyze_wildcard":true}},"filter":[]}
p965
sssV_index
p966
V.kibana
p967
sa(dp968
V_score
p969
F1
sV_type
p970
Vvisualization
p971
sV_id
p972
VCountry
p973
sV_source
p974
(dp975
VvisState
p976
V{"title":"By Country","type":"pie","params":{"shareYAxis":true,"addTooltip":true,"addLegend":true,"isDonut":false},"aggs":[{"id":"1","type":"count","schema":"metric","params":{}},{"id":"2","type":"terms","schema":"segment","params":{"field":"enrichments:geo:ip_src_addr:country","size":5,"order":"desc","orderBy":"1"}}],"listeners":{}}
p977
sVdescription
p978
V
sVtitle
p979
VBy Country
p980
sVuiStateJSON
p981
V{}
p982
sVversion
p983
I1
sVkibanaSavedObjectMeta
p984
(dp985
VsearchSourceJSON
p986
V{"index":["yaf*","bro*","snort*"],"query":{"query_string":{"query":"*","analyze_wildcard":true}},"filter":[]}
p987
sssV_index
p988
V.kibana
p989
sa(dp990
V_score
p991
F1
sV_type
p992
Vvisualization
p993
sV_id
p994
VFlow-Locations
p995
sV_source
p996
(dp997
VvisState
p998
V{"title":"Flow Locations","type":"tile_map","params":{"mapType":"Scaled Circle Markers","isDesaturated":true,"addTooltip":true,"heatMaxZoom":16,"heatMinOpacity":0.1,"heatRadius":25,"heatBlur":15,"heatNormalizeData":true,"wms":{"enabled":false,"url":"https://basemap.nationalmap.gov/arcgis/services/USGSTopo/MapServer/WMSServer","options":{"version":"1.3.0","layers":"0","format":"image/png","transparent":true,"attribution":"Maps provided by USGS","styles":""}}},"aggs":[{"id":"1","type":"count","schema":"metric","params":{}},{"id":"2","type":"geohash_grid","schema":"segment","params":{"field":"enrichments:geo:ip_dst_addr:location_point","autoPrecision":true,"precision":2}}],"listeners":{}}
p999
sVdescription
p1000
V
sVtitle
p1001
VFlow Locations
p1002
sVuiStateJSON
p1003
V{}
p1004
sVversion
p1005
I1
sVkibanaSavedObjectMeta
p1006
(dp1007
VsearchSourceJSON
p1008
V{"index":["yaf*","bro*","snort*"],"query":{"query_string":{"query":"*","analyze_wildcard":true}},"filter":[]}
p1009
sssV_index
p1010
V.kibana
p1011
sa(dp1012
V_score
p1013
F1
sV_type
p1014
Vvisualization
p1015
sV_id
p1016
VTop-Destinations
p1017
sV_source
p1018
(dp1019
VvisState
p1020
V{"title":"Top Destinations","type":"table","params":{"perPage":10,"showPartialRows":false,"showMeticsAtAllLevels":false},"aggs":[{"id":"1","type":"count","schema":"metric","params":{}},{"id":"2","type":"terms","schema":"bucket","params":{"field":"ip_dst_addr","size":10,"order":"desc","orderBy":"1","customLabel":"Destination IP"}}],"listeners":{}}
p1021
sVdescription
p1022
V
sVtitle
p1023
VTop Destinations
p1024
sVuiStateJSON
p1025
V{}
p1026
sVversion
p1027
I1
sVkibanaSavedObjectMeta
p1028
(dp1029
VsearchSourceJSON
p1030
V{"index":["yaf*","bro*","snort*"],"query":{"query_string":{"query":"*","analyze_wildcard":true}},"filter":[]}
p1031
sssV_index
p1032
V.kibana
p1033
sa(dp1034
V_score
p1035
F1
sV_type
p1036
Vvisualization
p1037
sV_id
p1038
VUnusual-Referrers
p1039
sV_source
p1040
(dp1041
VvisState
p1042
V{"title":"Unusual Referrers","type":"table","params":{"perPage":10,"showPartialRows":false,"showMeticsAtAllLevels":false},"aggs":[{"id":"1","type":"count","schema":"metric","params":{}},{"id":"2","type":"significant_terms","schema":"bucket","params":{"field":"referrer","size":5,"customLabel":"Top 5 Unusual Referrers"}}],"listeners":{}}
p1043
sVdescription
p1044
V
sVtitle
p1045
VUnusual Referrers
p1046
sVuiStateJSON
p1047
V{}
p1048
sVversion
p1049
I1
sVsavedSearchId
p1050
Vweb-search
p1051
sVkibanaSavedObjectMeta
p1052
(dp1053
VsearchSourceJSON
p1054
V{"filter":[]}
p1055
sssV_index
p1056
V.kibana
p1057
sa.