(lp1
(dp2
V_score
p3
F1
sV_type
p4
Vindex-pattern
p5
sV_id
p6
Vbro*
p7
sV_source
p8
(dp9
Vfields
p10
V[{"name":"TTLs","type":"number","count":0,"scripted":false,"indexed":true,"analyzed":false,"doc_values":true},{"name":"qclass_name","type":"string","count":0,"scripted":false,"indexed":true,"analyzed":false,"doc_values":true},{"name":"bro_timestamp","type":"string","count":0,"scripted":false,"indexed":true,"analyzed":true,"doc_values":false},{"name":"enrichments:geo:ip_dst_addr:location_point","type":"geo_point","count":0,"scripted":false,"indexed":true,"analyzed":false,"doc_values":true},{"name":"answers","type":"ip","count":0,"scripted":false,"indexed":true,"analyzed":false,"doc_values":true},{"name":"enrichmentjoinbolt:joiner:ts","type":"date","count":0,"scripted":false,"indexed":true,"analyzed":false,"doc_values":true},{"name":"adapter:geoadapter:begin:ts","type":"date","count":1,"scripted":false,"indexed":true,"analyzed":false,"doc_values":true},{"name":"resp_mime_types","type":"string","count":0,"scripted":false,"indexed":true,"analyzed":true,"doc_values":false},{"name":"protocol","type":"string","count":0,"scripted":false,"indexed":true,"analyzed":false,"doc_values":true},{"name":"original_string","type":"string","count":0,"scripted":false,"indexed":true,"analyzed":true,"doc_values":false},{"name":"adapter:threatinteladapter:end:ts","type":"date","count":0,"scripted":false,"indexed":true,"analyzed":false,"doc_values":true},{"name":"host","type":"string","count":0,"scripted":false,"indexed":true,"analyzed":false,"doc_values":true},{"name":"adapter:geoadapter:end:ts","type":"date","count":1,"scripted":false,"indexed":true,"analyzed":false,"doc_values":true},{"name":"AA","type":"boolean","count":0,"scripted":false,"indexed":true,"analyzed":false,"doc_values":true},{"name":"method","type":"string","count":0,"scripted":false,"indexed":true,"analyzed":false,"doc_values":true},{"name":"enrichmentsplitterbolt:splitter:end:ts","type":"date","count":0,"scripted":false,"indexed":true,"analyzed":false,"doc_values":true},{"name":"query","type":"string","count":0,"scripted":false,"indexed":true,"analyzed":false,"doc_values":true},{"name":"enrichments:geo:ip_dst_addr:city","type":"string","count":0,"scripted":false,"indexed":true,"analyzed":false,"doc_values":true},{"name":"rcode","type":"number","count":0,"scripted":false,"indexed":true,"analyzed":false,"doc_values":true},{"name":"adapter:hostfromjsonlistadapter:begin:ts","type":"date","count":0,"scripted":false,"indexed":true,"analyzed":false,"doc_values":true},{"name":"orig_mime_types","type":"string","count":0,"scripted":false,"indexed":true,"analyzed":true,"doc_values":false},{"name":"RA","type":"boolean","count":0,"scripted":false,"indexed":true,"analyzed":false,"doc_values":true},{"name":"RD","type":"boolean","count":0,"scripted":false,"indexed":true,"analyzed":false,"doc_values":true},{"name":"orig_fuids","type":"string","count":0,"scripted":false,"indexed":true,"analyzed":true,"doc_values":false},{"name":"proto","type":"string","count":0,"scripted":false,"indexed":true,"analyzed":false,"doc_values":true},{"name":"adapter:threatinteladapter:begin:ts","type":"date","count":0,"scripted":false,"indexed":true,"analyzed":false,"doc_values":true},{"name":"_source","type":"_source","count":0,"scripted":false,"indexed":false,"analyzed":false,"doc_values":false},{"name":"enrichments:geo:ip_dst_addr:country","type":"string","count":0,"scripted":false,"indexed":true,"analyzed":false,"doc_values":true},{"name":"response_body_len","type":"number","count":0,"scripted":false,"indexed":true,"analyzed":false,"doc_values":true},{"name":"enrichments:geo:ip_dst_addr:locID","type":"string","count":0,"scripted":false,"indexed":true,"analyzed":false,"doc_values":true},{"name":"qtype_name","type":"string","count":0,"scripted":false,"indexed":true,"analyzed":false,"doc_values":true},{"name":"status_code","type":"number","count":0,"scripted":false,"indexed":true,"analyzed":false,"doc_values":true},{"name":"_index","type":"string","count":0,"scripted":false,"indexed":false,"analyzed":false,"doc_values":false},{"name":"ip_dst_port","type":"number","count":0,"scripted":false,"indexed":true,"analyzed":false,"doc_values":true},{"name":"enrichments:geo:ip_dst_addr:dmaCode","type":"string","count":0,"scripted":false,"indexed":true,"analyzed":false,"doc_values":true},{"name":"threatinteljoinbolt:joiner:ts","type":"date","count":0,"scripted":false,"indexed":true,"analyzed":false,"doc_values":true},{"name":"rejected","type":"boolean","count":0,"scripted":false,"indexed":true,"analyzed":false,"doc_values":true},{"name":"qtype","type":"number","count":0,"scripted":false,"indexed":true,"analyzed":false,"doc_values":true},{"name":"enrichmentsplitterbolt:splitter:begin:ts","type":"date","count":0,"scripted":false,"indexed":true,"analyzed":false,"doc_values":true},{"name":"trans_id","type":"number","count":0,"scripted":false,"indexed":true,"analyzed":false,"doc_values":true},{"name":"enrichments:geo:ip_dst_addr:latitude","type":"number","count":0,"scripted":false,"indexed":true,"analyzed":false,"doc_values":true},{"name":"uid","type":"string","count":0,"scripted":false,"indexed":true,"analyzed":false,"doc_values":true},{"name":"source:type","type":"string","count":0,"scripted":false,"indexed":true,"analyzed":false,"doc_values":true},{"name":"trans_depth","type":"number","count":0,"scripted":false,"indexed":true,"analyzed":false,"doc_values":true},{"name":"ip_dst_addr","type":"ip","count":0,"scripted":false,"indexed":true,"analyzed":false,"doc_values":true},{"name":"adapter:hostfromjsonlistadapter:end:ts","type":"date","count":0,"scripted":false,"indexed":true,"analyzed":false,"doc_values":true},{"name":"Z","type":"number","count":0,"scripted":false,"indexed":true,"analyzed":false,"doc_values":true},{"name":"ip_src_addr","type":"ip","count":0,"scripted":false,"indexed":true,"analyzed":false,"doc_values":true},{"name":"threatintelsplitterbolt:splitter:end:ts","type":"date","count":0,"scripted":false,"indexed":true,"analyzed":false,"doc_values":true},{"name":"enrichments:geo:ip_dst_addr:longitude","type":"number","count":0,"scripted":false,"indexed":true,"analyzed":false,"doc_values":true},{"name":"user_agent","type":"string","count":0,"scripted":false,"indexed":true,"analyzed":true,"doc_values":false},{"name":"qclass","type":"number","count":0,"scripted":false,"indexed":true,"analyzed":false,"doc_values":true},{"name":"timestamp","type":"date","count":0,"scripted":false,"indexed":true,"analyzed":false,"doc_values":true},{"name":"resp_fuids","type":"string","count":0,"scripted":false,"indexed":true,"analyzed":true,"doc_values":false},{"name":"request_body_len","type":"number","count":0,"scripted":false,"indexed":true,"analyzed":false,"doc_values":true},{"name":"enrichments:geo:ip_dst_addr:postalCode","type":"string","count":0,"scripted":false,"indexed":true,"analyzed":false,"doc_values":true},{"name":"uri","type":"string","count":0,"scripted":false,"indexed":true,"analyzed":false,"doc_values":true},{"name":"rcode_name","type":"string","count":0,"scripted":false,"indexed":true,"analyzed":false,"doc_values":true},{"name":"TC","type":"boolean","count":0,"scripted":false,"indexed":true,"analyzed":false,"doc_values":true},{"name":"referrer","type":"string","count":0,"scripted":false,"indexed":true,"analyzed":false,"doc_values":true},{"name":"ip_src_port","type":"number","count":0,"scripted":false,"indexed":true,"analyzed":false,"doc_values":true},{"name":"status_msg","type":"string","count":0,"scripted":false,"indexed":true,"analyzed":false,"doc_values":true},{"name":"threatintelsplitterbolt:splitter:begin:ts","type":"date","count":0,"scripted":false,"indexed":true,"analyzed":false,"doc_values":true},{"name":"_id","type":"string","count":0,"scripted":false,"indexed":false,"analyzed":false,"doc_values":false},{"name":"_type","type":"string","count":1,"scripted":false,"indexed":false,"analyzed":false,"doc_values":false},{"name":"_score","type":"number","count":2,"scripted":false,"indexed":false,"analyzed":false,"doc_values":false}]
p11
sVtimeFieldName
p12
Vtimestamp
p13
sVtitle
p14
Vbro*
p15
ssV_index
p16
V.kibana
p17
sa(dp18
V_score
p19
F1
sV_type
p20
Vsearch
p21
sV_id
p22
Vsnort-search
p23
sV_source
p24
(dp25
Vsort
p26
(lp27
Vtimestamp
p28
aVdesc
p29
asVhits
p30
I0
sVdescription
p31
V
sVtitle
p32
VSnort Alerts
p33
sVversion
p34
I1
sVkibanaSavedObjectMeta
p35
(dp36
VsearchSourceJSON
p37
V{"index":"snort*","query":{"query_string":{"analyze_wildcard":true,"query":"*"}},"filter":[],"highlight":{"pre_tags":["@kibana-highlighted-field@"],"post_tags":["@/kibana-highlighted-field@"],"fields":{"*":{}},"require_field_match":false,"fragment_size":2147483647}}
p38
ssVcolumns
p39
(lp40
Vmsg
p41
aVsig_id
p42
aVip_src_addr
p43
aVip_src_port
p44
aVip_dst_addr
p45
aVip_dst_port
p46
assV_index
p47
V.kibana
p48
sa(dp49
V_score
p50
F1
sV_type
p51
Vsearch
p52
sV_id
p53
Vyaf-search
p54
sV_source
p55
(dp56
Vsort
p57
(lp58
Vtimestamp
p59
aVdesc
p60
asVhits
p61
I0
sVdescription
p62
V
sVtitle
p63
VYAF
p64
sVversion
p65
I1
sVkibanaSavedObjectMeta
p66
(dp67
VsearchSourceJSON
p68
V{"index":"yaf*","filter":[],"highlight":{"pre_tags":["@kibana-highlighted-field@"],"post_tags":["@/kibana-highlighted-field@"],"fields":{"*":{}},"require_field_match":false,"fragment_size":2147483647},"query":{"query_string":{"query":"*","analyze_wildcard":true}}}
p69
ssVcolumns
p70
(lp71
Vip_src_addr
p72
aVip_src_port
p73
aVip_dst_addr
p74
aVip_dst_port
p75
aVprotocol
p76
aVduration
p77
aVpkt
p78
assV_index
p79
V.kibana
p80
sa(dp81
V_score
p82
F1
sV_type
p83
Vvisualization
p84
sV_id
p85
VWelcome
p86
sV_source
p87
(dp88
VvisState
p89
V{"title":"Welcome to Apache Metron","type":"markdown","params":{"markdown":"This dashboard enables the validation of Apache Metron and the end-to-end functioning of its default sensor suite.  The default sensor suite includes [Snort](https://www.snort.org/), [Bro](https://www.bro.org/), and [YAF](https://tools.netsa.cert.org/yaf/).  One of Apache Metron's primary goals is to simplify the onboarding of additional sources of telemetry.  In a production deployment these default sensors should be replaced with ones applicable to the target environment.\u005cn\u005cnApache Metron enables disparate sources of telemetry to all be viewed under a 'single pane of glass.'  Telemetry from each of the default sensors can be searched, aggregated, summarized, and viewed within this dashboard. This dashboard should be used as a springboard upon which to create your own customized dashboards.\u005cn\u005cnThe panels below highlight the volume and variety of events that are currently being consumed by Apache Metron."},"aggs":[],"listeners":{}}
p90
sVdescription
p91
V
sVtitle
p92
VWelcome to Apache Metron
p93
sVuiStateJSON
p94
V{}
p95
sVversion
p96
I1
sVkibanaSavedObjectMeta
p97
(dp98
VsearchSourceJSON
p99
V{"query":{"query_string":{"analyze_wildcard":true,"query":"*"}},"filter":[]}
p100
sssV_index
p101
V.kibana
p102
sa(dp103
V_score
p104
F1
sV_type
p105
Vvisualization
p106
sV_id
p107
VTop-Snort-Alerts-by-Source
p108
sV_source
p109
(dp110
VvisState
p111
V{"title":"Top Snort Alerts by Source","type":"table","params":{"perPage":10,"showPartialRows":false,"showMeticsAtAllLevels":false},"aggs":[{"id":"1","type":"count","schema":"metric","params":{}},{"id":"2","type":"terms","schema":"bucket","params":{"field":"ip_src_addr","size":10,"order":"desc","orderBy":"1","customLabel":"Source IP"}}],"listeners":{}}
p112
sVdescription
p113
V
sVtitle
p114
VTop Snort Alerts by Source
p115
sVuiStateJSON
p116
V{}
p117
sVversion
p118
I1
sVkibanaSavedObjectMeta
p119
(dp120
VsearchSourceJSON
p121
V{"index":"snort*","query":{"query_string":{"query":"*","analyze_wildcard":true}},"filter":[]}
p122
sssV_index
p123
V.kibana
p124
sa(dp125
V_score
p126
F1
sV_type
p127
Vvisualization
p128
sV_id
p129
VWeb-Request-Type
p130
sV_source
p131
(dp132
VvisState
p133
V{"title":"Web Request Type","type":"pie","params":{"shareYAxis":true,"addTooltip":true,"addLegend":true,"isDonut":false},"aggs":[{"id":"1","type":"count","schema":"metric","params":{}},{"id":"2","type":"terms","schema":"segment","params":{"field":"method","size":5,"order":"desc","orderBy":"1"}}],"listeners":{}}
p134
sVdescription
p135
V
sVtitle
p136
VWeb Request Type
p137
sVuiStateJSON
p138
V{}
p139
sVversion
p140
I1
sVsavedSearchId
p141
Vweb-search
p142
sVkibanaSavedObjectMeta
p143
(dp144
VsearchSourceJSON
p145
V{"filter":[]}
p146
sssV_index
p147
V.kibana
p148
sa(dp149
V_score
p150
F1
sV_type
p151
Vconfig
p152
sV_id
p153
V4.5.1
p154
sV_source
p155
(dp156
VbuildNum
p157
I9892
sVdefaultIndex
p158
Vbro*
p159
ssV_index
p160
V.kibana
p161
sa(dp162
V_score
p163
F1
sV_type
p164
Vvisualization
p165
sV_id
p166
VErrors-By-Hostname
p167
sV_source
p168
(dp169
VvisState
p170
V{\u000a  "title": "Errors By Error Type",\u000a  "type": "histogram",\u000a  "params": {\u000a    "addLegend": true,\u000a    "addTimeMarker": false,\u000a    "addTooltip": true,\u000a    "defaultYExtents": false,\u000a    "mode": "grouped",\u000a    "scale": "linear",\u000a    "setYExtents": false,\u000a    "shareYAxis": true,\u000a    "times": [],\u000a    "yAxis": {}\u000a  },\u000a  "aggs": [\u000a    {\u000a      "id": "1",\u000a      "type": "count",\u000a      "schema": "metric",\u000a      "params": {\u000a        "customLabel": "Count"\u000a      }\u000a    },\u000a    {\u000a      "id": "2",\u000a      "type": "terms",\u000a      "schema": "segment",\u000a      "params": {\u000a        "field": "hostname",\u000a        "size": 5,\u000a        "order": "desc",\u000a        "orderBy": "1"\u000a      }\u000a    },\u000a    {\u000a      "id": "4",\u000a      "type": "cardinality",\u000a      "schema": "metric",\u000a      "params": {\u000a        "field": "error_hash",\u000a        "customLabel": "Unique Datapoint Count"\u000a      }\u000a    }\u000a  ],\u000a  "listeners": {}\u000a}
p171
sVdescription
p172
V
sVtitle
p173
VErrors By Hostname
p174
sVuiStateJSON
p175
V{\u000a  "vis": {\u000a    "colors": {\u000a      "Unique Datapoint Count": "#9AC48A",\u000a      "Count": "#629E51"\u000a    }\u000a  }\u000a}
p176
sVversion
p177
I1
sVkibanaSavedObjectMeta
p178
(dp179
VsearchSourceJSON
p180
V{\u000a  "index": "error*",\u000a  "query": {\u000a    "query_string": {\u000a      "analyze_wildcard": true,\u000a      "query": "*"\u000a    }\u000a  },\u000a  "filter": []\u000a}
p181
sssV_index
p182
V.kibana
p183
sa(dp184
V_score
p185
F1
sV_type
p186
Vvisualization
p187
sV_id
p188
VWeb-Request-Header
p189
sV_source
p190
(dp191
VvisState
p192
V{"title":"Web Request Header","type":"markdown","params":{"markdown":"The [Bro Network Security Monitor](https://www.bro.org/) is extracting application-level information from raw network packets.  In this example, Bro is extracting HTTP(S) requests being made over the network. "},"aggs":[],"listeners":{}}
p193
sVdescription
p194
V
sVtitle
p195
VWeb Request Header
p196
sVuiStateJSON
p197
V{}
p198
sVversion
p199
I1
sVkibanaSavedObjectMeta
p200
(dp201
VsearchSourceJSON
p202
V{"query":{"query_string":{"query":"*","analyze_wildcard":true}},"filter":[]}
p203
sssV_index
p204
V.kibana
p205
sa(dp206
V_score
p207
F1
sV_type
p208
Vvisualization
p209
sV_id
p210
VError-Type-Proportion
p211
sV_source
p212
(dp213
VvisState
p214
V{"title":"Error Type Proportion","type":"pie","params":{"shareYAxis":true,"addTooltip":true,"addLegend":true,"isDonut":false},"aggs":[{"id":"1","type":"count","schema":"metric","params":{}},{"id":"2","type":"terms","schema":"segment","params":{"field":"error_type","size":5,"order":"desc","orderBy":"1"}}],"listeners":{}}
p215
sVdescription
p216
V
sVtitle
p217
VError Type Proportion
p218
sVuiStateJSON
p219
V{}
p220
sVversion
p221
I1
sVkibanaSavedObjectMeta
p222
(dp223
VsearchSourceJSON
p224
V{"index":"error*","query":{"query_string":{"query":"*","analyze_wildcard":true}},"filter":[]}
p225
sssV_index
p226
V.kibana
p227
sa(dp228
V_score
p229
F1
sV_type
p230
Vvisualization
p231
sV_id
p232
VFlow-Duration
p233
sV_source
p234
(dp235
VvisState
p236
V{"title":"Flow Duration","type":"area","params":{"shareYAxis":true,"addTooltip":true,"addLegend":true,"smoothLines":false,"scale":"linear","interpolate":"linear","mode":"stacked","times":[],"addTimeMarker":false,"defaultYExtents":false,"setYExtents":false,"yAxis":{}},"aggs":[{"id":"1","type":"count","schema":"metric","params":{}},{"id":"2","type":"histogram","schema":"segment","params":{"field":"duration","interval":10,"extended_bounds":{},"customLabel":"Flow Duration (seconds)"}}],"listeners":{}}
p237
sVdescription
p238
V
sVtitle
p239
VFlow Duration
p240
sVuiStateJSON
p241
V{"vis":{"legendOpen":false}}
p242
sVversion
p243
I1
sVkibanaSavedObjectMeta
p244
(dp245
VsearchSourceJSON
p246
V{"index":"yaf*","query":{"query_string":{"query":"*","analyze_wildcard":true}},"filter":[]}
p247
sssV_index
p248
V.kibana
p249
sa(dp250
V_score
p251
F1
sV_type
p252
Vvisualization
p253
sV_id
p254
VErrors-By-Source
p255
sV_source
p256
(dp257
VvisState
p258
V{"title":"Errors By Source","type":"histogram","params":{"shareYAxis":true,"addTooltip":true,"addLegend":true,"scale":"linear","mode":"stacked","times":[],"addTimeMarker":false,"defaultYExtents":false,"setYExtents":false,"yAxis":{}},"aggs":[{"id":"1","type":"count","schema":"metric","params":{}},{"id":"2","type":"terms","schema":"segment","params":{"field":"source_type","size":5,"order":"desc","orderBy":"1","customLabel":"Source"}}],"listeners":{}}
p259
sVdescription
p260
V
sVtitle
p261
VErrors By Source
p262
sVuiStateJSON
p263
V{}
p264
sVversion
p265
I1
sVkibanaSavedObjectMeta
p266
(dp267
VsearchSourceJSON
p268
V{"index":"error*","query":{"query_string":{"query":"*","analyze_wildcard":true}},"filter":[]}
p269
sssV_index
p270
V.kibana
p271
sa(dp272
V_score
p273
F1
sV_type
p274
Vvisualization
p275
sV_id
p276
VEvents
p277
sV_source
p278
(dp279
VvisState
p280
V{"title":"Events","type":"histogram","params":{"shareYAxis":true,"addTooltip":true,"addLegend":true,"scale":"linear","mode":"stacked","times":[],"addTimeMarker":false,"defaultYExtents":false,"setYExtents":false,"yAxis":{}},"aggs":[{"id":"1","type":"count","schema":"metric","params":{}},{"id":"2","type":"date_histogram","schema":"segment","params":{"field":"timestamp","interval":"auto","customInterval":"2h","min_doc_count":1,"extended_bounds":{}}},{"id":"3","type":"terms","schema":"group","params":{"field":"source:type","size":5,"order":"desc","orderBy":"1"}}],"listeners":{}}
p281
sVdescription
p282
V
sVtitle
p283
VEvents
p284
sVuiStateJSON
p285
V{"vis":{"legendOpen":false}}
p286
sVversion
p287
I1
sVkibanaSavedObjectMeta
p288
(dp289
VsearchSourceJSON
p290
V{"index":["yaf*","bro*","snort*"],"query":{"query_string":{"query":"*","analyze_wildcard":true}},"filter":[]}
p291
sssV_index
p292
V.kibana
p293
sa(dp294
V_score
p295
F1
sV_type
p296
Vvisualization
p297
sV_id
p298
VError-Hostname-Proportion
p299
sV_source
p300
(dp301
VvisState
p302
V{"aggs":[{"id":"1","params":{},"schema":"metric","type":"count"},{"id":"2","params":{"customLabel":"Sensor","field":"hostname","order":"desc","orderBy":"1","size":5},"schema":"segment","type":"terms"}],"listeners":{},"params":{"addLegend":true,"addTooltip":true,"isDonut":false,"shareYAxis":true},"title":"Error Source Proportion","type":"pie"}
p303
sVdescription
p304
V
sVtitle
p305
VError Hostname Proportion
p306
sVuiStateJSON
p307
V{"vis":{"colors":{"host":"#629E51","host2":"#9AC48A","hostAnother":"#7EB26D","hostNew":"#B7DBAB"}}}
p308
sVversion
p309
I1
sVkibanaSavedObjectMeta
p310
(dp311
VsearchSourceJSON
p312
V{"index":"error*","query":{"query_string":{"analyze_wildcard":true,"query":"*"}},"filter":[]}
p313
sssV_index
p314
V.kibana
p315
sa(dp316
V_score
p317
F1
sV_type
p318
Vvisualization
p319
sV_id
p320
VUnique-Error-Messages
p321
sV_source
p322
(dp323
VvisState
p324
V{\u000a  "title": "Total Unique Error Messages",\u000a  "type": "metric",\u000a  "params": {\u000a    "handleNoResults": true,\u000a    "fontSize": 60\u000a  },\u000a  "aggs": [\u000a    {\u000a      "id": "1",\u000a      "type": "cardinality",\u000a      "schema": "metric",\u000a      "params": {\u000a        "field": "error_hash",\u000a        "customLabel": "Unique Error Messages"\u000a      }\u000a    }\u000a  ],\u000a  "listeners": {}\u000a}
p325
sVdescription
p326
V
sVtitle
p327
VUnique Error Messages
p328
sVuiStateJSON
p329
V{}
p330
sVversion
p331
I1
sVkibanaSavedObjectMeta
p332
(dp333
VsearchSourceJSON
p334
V{\u000a  "index": "error*",\u000a  "query": {\u000a    "query_string": {\u000a      "query": "*",\u000a      "analyze_wildcard": true\u000a    }\u000a  },\u000a  "filter": []\u000a}
p335
sssV_index
p336
V.kibana
p337
sa(dp338
V_score
p339
F1
sV_type
p340
Vvisualization
p341
sV_id
p342
VErrors-By-Error-Type
p343
sV_source
p344
(dp345
VvisState
p346
V{\u000a  "title": "Errors By Error Type",\u000a  "type": "histogram",\u000a  "params": {\u000a    "addLegend": true,\u000a    "addTimeMarker": false,\u000a    "addTooltip": true,\u000a    "defaultYExtents": false,\u000a    "mode": "grouped",\u000a    "scale": "linear",\u000a    "setYExtents": false,\u000a    "shareYAxis": true,\u000a    "times": [],\u000a    "yAxis": {}\u000a  },\u000a  "aggs": [\u000a    {\u000a      "id": "1",\u000a      "type": "count",\u000a      "schema": "metric",\u000a      "params": {\u000a        "customLabel": "Count"\u000a      }\u000a    },\u000a    {\u000a      "id": "2",\u000a      "type": "terms",\u000a      "schema": "segment",\u000a      "params": {\u000a        "field": "error_type",\u000a        "size": 5,\u000a        "order": "desc",\u000a        "orderBy": "1"\u000a      }\u000a    },\u000a    {\u000a      "id": "4",\u000a      "type": "cardinality",\u000a      "schema": "metric",\u000a      "params": {\u000a        "field": "error_hash",\u000a        "customLabel": "Unique Datapoint Count"\u000a      }\u000a    }\u000a  ],\u000a  "listeners": {}\u000a}
p347
sVdescription
p348
V
sVtitle
p349
VErrors By Error Type
p350
sVuiStateJSON
p351
V{\u000a  "vis": {\u000a    "colors": {\u000a      "Unique Datapoint Count": "#806EB7",\u000a      "Count": "#614D93"\u000a    }\u000a  }\u000a}
p352
sVversion
p353
I1
sVkibanaSavedObjectMeta
p354
(dp355
VsearchSourceJSON
p356
V{\u000a  "index": "error*",\u000a  "query": {\u000a    "query_string": {\u000a      "analyze_wildcard": true,\u000a      "query": "*"\u000a    }\u000a  },\u000a  "filter": []\u000a}
p357
sssV_index
p358
V.kibana
p359
sa(dp360
V_score
p361
F1
sV_type
p362
Vsearch
p363
sV_id
p364
VErrors
p365
sV_source
p366
(dp367
Vsort
p368
(lp369
Vtimestamp
p370
aVdesc
p371
asVhits
p372
I0
sVdescription
p373
V
sVtitle
p374
VErrors
p375
sVversion
p376
I1
sVkibanaSavedObjectMeta
p377
(dp378
VsearchSourceJSON
p379
V{"index":"error*","query":{"query_string":{"analyze_wildcard":true,"query":"*"}},"filter":[],"highlight":{"pre_tags":["@kibana-highlighted-field@"],"post_tags":["@/kibana-highlighted-field@"],"fields":{"*":{}},"require_field_match":false,"fragment_size":2147483647}}
p380
ssVcolumns
p381
(lp382
Vfailed_sensor_type
p383
aVerror_type
p384
aVexception
p385
aVhostname
p386
aVmessage
p387
aVraw_message
p388
aVerror_hash
p389
assV_index
p390
V.kibana
p391
sa(dp392
V_score
p393
F1
sV_type
p394
Vdashboard
p395
sV_id
p396
VMetron-Dashboard
p397
sV_source
p398
(dp399
Vhits
p400
I0
sVtimeRestore
p401
I00
sVdescription
p402
V
sVtitle
p403
VMetron Dashboard
p404
sVuiStateJSON
p405
V{"P-23":{"spy":{"mode":{"name":null,"fill":false}}},"P-34":{"vis":{"legendOpen":false}}}
p406
sVpanelsJSON
p407
V[{"col":1,"id":"Welcome","panelIndex":30,"row":1,"size_x":11,"size_y":2,"type":"visualization"},{"col":1,"id":"Total-Events","panelIndex":6,"row":3,"size_x":3,"size_y":2,"type":"visualization"},{"col":4,"id":"Events","panelIndex":16,"row":3,"size_x":8,"size_y":4,"type":"visualization"},{"col":1,"id":"Event-Types","panelIndex":15,"row":5,"size_x":3,"size_y":2,"type":"visualization"},{"col":1,"id":"Location-Header","panelIndex":24,"row":7,"size_x":3,"size_y":2,"type":"visualization"},{"col":1,"id":"Unique-Location(s)","panelIndex":23,"row":9,"size_x":3,"size_y":2,"type":"visualization"},{"col":4,"id":"Flow-Locations","panelIndex":32,"row":7,"size_x":8,"size_y":6,"type":"visualization"},{"col":1,"id":"Country","panelIndex":8,"row":11,"size_x":3,"size_y":2,"type":"visualization"},{"col":1,"id":"YAF-Flows-Header","panelIndex":27,"row":13,"size_x":3,"size_y":2,"type":"visualization"},{"col":1,"id":"YAF-Flow(s)","panelIndex":21,"row":15,"size_x":3,"size_y":2,"type":"visualization"},{"col":4,"columns":["ip_src_addr","ip_src_port","ip_dst_addr","ip_dst_port","protocol","duration","pkt"],"id":"yaf-search","panelIndex":20,"row":13,"size_x":8,"size_y":6,"sort":["duration","desc"],"type":"search"},{"col":1,"id":"Flow-Duration","panelIndex":31,"row":17,"size_x":3,"size_y":2,"type":"visualization"},{"col":1,"id":"Snort-Header","panelIndex":25,"row":19,"size_x":3,"size_y":2,"type":"visualization"},{"col":4,"columns":["msg","sig_id","ip_src_addr","ip_src_port","ip_dst_addr","ip_dst_port"],"id":"snort-search","panelIndex":3,"row":19,"size_x":8,"size_y":6,"sort":["timestamp","desc"],"type":"search"},{"col":1,"id":"Snort-Alert-Types","panelIndex":10,"row":21,"size_x":3,"size_y":2,"type":"visualization"},{"col":1,"id":"Top-Alerts-By-Host","panelIndex":19,"row":23,"size_x":3,"size_y":2,"type":"visualization"},{"col":1,"id":"Web-Request-Header","panelIndex":26,"row":25,"size_x":3,"size_y":2,"type":"visualization"},{"col":4,"columns":["method","host","uri","referrer","user_agent","ip_src_addr","ip_dst_addr"],"id":"web-search","panelIndex":4,"row":25,"size_x":8,"size_y":6,"sort":["timestamp","desc"],"type":"search"},{"col":1,"id":"HTTP(S)-Requests","panelIndex":17,"row":27,"size_x":3,"size_y":2,"type":"visualization"},{"col":1,"id":"DNS-Requests-Header","panelIndex":29,"row":31,"size_x":3,"size_y":2,"type":"visualization"},{"col":4,"columns":["query","qtype_name","answers","ip_src_addr","ip_dst_addr"],"id":"dns-search","panelIndex":5,"row":31,"size_x":8,"size_y":6,"sort":["timestamp","desc"],"type":"search"},{"col":1,"id":"DNS-Request(s)","panelIndex":14,"row":33,"size_x":3,"size_y":2,"type":"visualization"},{"col":1,"id":"Web-Request-Type","panelIndex":33,"row":29,"size_x":3,"size_y":2,"type":"visualization"}]
p408
sVoptionsJSON
p409
V{"darkTheme":false}
p410
sVversion
p411
I1
sVkibanaSavedObjectMeta
p412
(dp413
VsearchSourceJSON
p414
V{"filter":[{"query":{"query_string":{"analyze_wildcard":true,"query":"*"}}}]}
p415
sssV_index
p416
V.kibana
p417
sa(dp418
V_score
p419
F1
sV_type
p420
Vvisualization
p421
sV_id
p422
VSnort-Header
p423
sV_source
p424
(dp425
VvisState
p426
V{"title":"Snort","type":"markdown","params":{"markdown":"[Snort](https://www.snort.org/) is a Network Intrusion Detection System (NIDS) that is being used to generate alerts identifying known bad events.  Snort relies on a fixed set of rules that act as signatures for identifying abnormal events."},"aggs":[],"listeners":{}}
p427
sVdescription
p428
V
sVtitle
p429
VSnort
p430
sVuiStateJSON
p431
V{}
p432
sVversion
p433
I1
sVkibanaSavedObjectMeta
p434
(dp435
VsearchSourceJSON
p436
V{"query":{"query_string":{"query":"*","analyze_wildcard":true}},"filter":[]}
p437
sssV_index
p438
V.kibana
p439
sa(dp440
V_score
p441
F1
sV_type
p442
Vvisualization
p443
sV_id
p444
VYAF-Flow(s)
p445
sV_source
p446
(dp447
VvisState
p448
V{"title":"YAF Flows","type":"metric","params":{"handleNoResults":true,"fontSize":60},"aggs":[{"id":"1","type":"count","schema":"metric","params":{}}],"listeners":{}}
p449
sVdescription
p450
V
sVtitle
p451
VYAF Flows
p452
sVuiStateJSON
p453
V{}
p454
sVversion
p455
I1
sVkibanaSavedObjectMeta
p456
(dp457
VsearchSourceJSON
p458
V{"index":"yaf*","query":{"query_string":{"query":"*","analyze_wildcard":true}},"filter":[]}
p459
sssV_index
p460
V.kibana
p461
sa(dp462
V_score
p463
F1
sV_type
p464
Vvisualization
p465
sV_id
p466
VTop-DNS-Query
p467
sV_source
p468
(dp469
VvisState
p470
V{"title":"Top DNS Query","type":"table","params":{"perPage":10,"showPartialRows":false,"showMeticsAtAllLevels":false},"aggs":[{"id":"1","type":"count","schema":"metric","params":{}},{"id":"2","type":"terms","schema":"bucket","params":{"field":"query","size":10,"order":"desc","orderBy":"1"}}],"listeners":{}}
p471
sVdescription
p472
V
sVtitle
p473
VTop DNS Query
p474
sVuiStateJSON
p475
V{}
p476
sVversion
p477
I1
sVkibanaSavedObjectMeta
p478
(dp479
VsearchSourceJSON
p480
V{"index":"bro*","query":{"query_string":{"query":"*","analyze_wildcard":true}},"filter":[]}
p481
sssV_index
p482
V.kibana
p483
sa(dp484
V_score
p485
F1
sV_type
p486
Vvisualization
p487
sV_id
p488
VEvent-Types
p489
sV_source
p490
(dp491
VvisState
p492
V{"title":"Event Sources","type":"pie","params":{"shareYAxis":true,"addTooltip":true,"addLegend":true,"isDonut":false},"aggs":[{"id":"1","type":"count","schema":"metric","params":{}},{"id":"2","type":"terms","schema":"segment","params":{"field":"source:type","size":10,"order":"desc","orderBy":"1"}}],"listeners":{}}
p493
sVdescription
p494
V
sVtitle
p495
VEvent Sources
p496
sVuiStateJSON
p497
V{}
p498
sVversion
p499
I1
sVkibanaSavedObjectMeta
p500
(dp501
VsearchSourceJSON
p502
V{"index":["yaf*","bro*","snort*"],"query":{"query_string":{"query":"*","analyze_wildcard":true}},"filter":[]}
p503
sssV_index
p504
V.kibana
p505
sa(dp506
V_score
p507
F1
sV_type
p508
Vvisualization
p509
sV_id
p510
VTotal-Events
p511
sV_source
p512
(dp513
VvisState
p514
V{"title":"Event Count","type":"metric","params":{"handleNoResults":true,"fontSize":60},"aggs":[{"id":"1","type":"count","schema":"metric","params":{"customLabel":"Events"}}],"listeners":{}}
p515
sVdescription
p516
V
sVtitle
p517
VEvent Count
p518
sVuiStateJSON
p519
V{}
p520
sVversion
p521
I1
sVkibanaSavedObjectMeta
p522
(dp523
VsearchSourceJSON
p524
V{"index":["yaf*","bro*","snort*"],"query":{"query_string":{"query":"*","analyze_wildcard":true}},"filter":[]}
p525
sssV_index
p526
V.kibana
p527
sa(dp528
V_score
p529
F1
sV_type
p530
Vvisualization
p531
sV_id
p532
VUnique-Location(s)
p533
sV_source
p534
(dp535
VvisState
p536
V{"title":"Geo-IP Locations","type":"metric","params":{"handleNoResults":true,"fontSize":60},"aggs":[{"id":"1","type":"cardinality","schema":"metric","params":{"field":"enrichments:geo:ip_src_addr:locID","customLabel":"Unique Location(s)"}}],"listeners":{}}
p537
sVdescription
p538
V
sVtitle
p539
VGeo-IP Locations
p540
sVuiStateJSON
p541
V{}
p542
sVversion
p543
I1
sVkibanaSavedObjectMeta
p544
(dp545
VsearchSourceJSON
p546
V{"index":["yaf*","bro*","snort*"],"query":{"query_string":{"query":"*","analyze_wildcard":true}},"filter":[]}
p547
sssV_index
p548
V.kibana
p549
sa(dp550
V_score
p551
F1
sV_type
p552
Vvisualization
p553
sV_id
p554
VTop-Alerts-By-Host
p555
sV_source
p556
(dp557
VvisState
p558
V{"title":"Top Alerts By Host","type":"table","params":{"perPage":10,"showPartialRows":false,"showMeticsAtAllLevels":false},"aggs":[{"id":"1","type":"count","schema":"metric","params":{}},{"id":"2","type":"terms","schema":"bucket","params":{"field":"ip_src_addr","size":5,"order":"desc","orderBy":"1","customLabel":"Source"}},{"id":"3","type":"terms","schema":"bucket","params":{"field":"ip_dst_addr","size":5,"order":"desc","orderBy":"1","customLabel":"Destination"}}],"listeners":{}}
p559
sVdescription
p560
V
sVtitle
p561
VTop Alerts By Host
p562
sVuiStateJSON
p563
V{}
p564
sVversion
p565
I1
sVsavedSearchId
p566
Vsnort-search
p567
sVkibanaSavedObjectMeta
p568
(dp569
VsearchSourceJSON
p570
V{"filter":[]}
p571
sssV_index
p572
V.kibana
p573
sa(dp574
V_score
p575
F1
sV_type
p576
Vvisualization
p577
sV_id
p578
VTotal-Error-Messages
p579
sV_source
p580
(dp581
VvisState
p582
V{"title":"Total Errored Messages","type":"metric","params":{"handleNoResults":true,"fontSize":60},"aggs":[{"id":"1","type":"count","schema":"metric","params":{"customLabel":"Total Error Messages"}}],"listeners":{}}
p583
sVdescription
p584
V
sVtitle
p585
VTotal Error Messages
p586
sVuiStateJSON
p587
V{}
p588
sVversion
p589
I1
sVkibanaSavedObjectMeta
p590
(dp591
VsearchSourceJSON
p592
V{"index":"error*","query":{"query_string":{"query":"*","analyze_wildcard":true}},"filter":[]}
p593
sssV_index
p594
V.kibana
p595
sa(dp596
V_score
p597
F1
sV_type
p598
Vvisualization
p599
sV_id
p600
VErrors-By-Source-Type
p601
sV_source
p602
(dp603
VvisState
p604
V{\u000a  "title": "Errors By Source Type",\u000a  "type": "histogram",\u000a  "params": {\u000a    "shareYAxis": true,\u000a    "addTooltip": true,\u000a    "addLegend": true,\u000a    "scale": "linear",\u000a    "mode": "grouped",\u000a    "times": [],\u000a    "addTimeMarker": false,\u000a    "defaultYExtents": false,\u000a    "setYExtents": false,\u000a    "yAxis": {}\u000a  },\u000a  "aggs": [\u000a    {\u000a      "id": "1",\u000a      "type": "count",\u000a      "schema": "metric",\u000a      "params": {\u000a        "customLabel": "Count"\u000a      }\u000a    },\u000a    {\u000a      "id": "2",\u000a      "type": "terms",\u000a      "schema": "segment",\u000a      "params": {\u000a        "field": "failed_sensor_type",\u000a        "size": 5,\u000a        "order": "desc",\u000a        "orderBy": "1"\u000a      }\u000a    },\u000a    {\u000a      "id": "4",\u000a      "type": "cardinality",\u000a      "schema": "metric",\u000a      "params": {\u000a        "field": "error_hash",\u000a        "customLabel": "Unique Datapoint Count"\u000a      }\u000a    }\u000a  ],\u000a  "listeners": {}\u000a}
p605
sVdescription
p606
V
sVtitle
p607
VErrors By Source Type
p608
sVuiStateJSON
p609
V{\u000a  "vis": {\u000a    "colors": {\u000a      "Unique Datapoint Count": "#0A50A1",\u000a      "Count": "#5195CE"\u000a    }\u000a  }\u000a}
p610
sVversion
p611
I1
sVkibanaSavedObjectMeta
p612
(dp613
VsearchSourceJSON
p614
V{\u000a  "index": "error*",\u000a  "query": {\u000a    "query_string": {\u000a      "analyze_wildcard": true,\u000a      "query": "*"\u000a    }\u000a  },\u000a  "filter": []\u000a}
p615
sssV_index
p616
V.kibana
p617
sa(dp618
V_score
p619
F1
sV_type
p620
Vindex-pattern
p621
sV_id
p622
Vsnort*
p623
sV_source
p624
(dp625
Vfields
p626
V[{"name":"msg","type":"string","count":0,"scripted":false,"indexed":true,"analyzed":true,"doc_values":false},{"name":"enrichments:geo:ip_dst_addr:location_point","type":"geo_point","count":0,"scripted":false,"indexed":true,"analyzed":false,"doc_values":true},{"name":"dgmlen","type":"number","count":0,"scripted":false,"indexed":true,"analyzed":false,"doc_values":true},{"name":"enrichments:geo:ip_src_addr:longitude","type":"number","count":0,"scripted":false,"indexed":true,"analyzed":false,"doc_values":true},{"name":"enrichmentjoinbolt:joiner:ts","type":"date","count":0,"scripted":false,"indexed":true,"analyzed":false,"doc_values":true},{"name":"enrichments:geo:ip_src_addr:dmaCode","type":"string","count":0,"scripted":false,"indexed":true,"analyzed":false,"doc_values":true},{"name":"adapter:geoadapter:begin:ts","type":"date","count":0,"scripted":false,"indexed":true,"analyzed":false,"doc_values":true},{"name":"tcpack","type":"string","count":0,"scripted":false,"indexed":true,"analyzed":true,"doc_values":false},{"name":"protocol","type":"string","count":0,"scripted":false,"indexed":true,"analyzed":false,"doc_values":true},{"name":"adapter:threatinteladapter:end:ts","type":"date","count":0,"scripted":false,"indexed":true,"analyzed":false,"doc_values":true},{"name":"enrichments:geo:ip_src_addr:locID","type":"string","count":0,"scripted":false,"indexed":true,"analyzed":false,"doc_values":true},{"name":"original_string","type":"string","count":0,"scripted":false,"indexed":true,"analyzed":true,"doc_values":false},{"name":"adapter:geoadapter:end:ts","type":"date","count":0,"scripted":false,"indexed":true,"analyzed":false,"doc_values":true},{"name":"id","type":"number","count":0,"scripted":false,"indexed":true,"analyzed":false,"doc_values":true},{"name":"enrichments:geo:ip_src_addr:location_point","type":"geo_point","count":0,"scripted":false,"indexed":true,"analyzed":false,"doc_values":true},{"name":"enrichmentsplitterbolt:splitter:end:ts","type":"date","count":0,"scripted":false,"indexed":true,"analyzed":false,"doc_values":true},{"name":"enrichments:geo:ip_dst_addr:city","type":"string","count":0,"scripted":false,"indexed":true,"analyzed":false,"doc_values":true},{"name":"adapter:hostfromjsonlistadapter:begin:ts","type":"date","count":0,"scripted":false,"indexed":true,"analyzed":false,"doc_values":true},{"name":"enrichments:geo:ip_src_addr:postalCode","type":"string","count":0,"scripted":false,"indexed":true,"analyzed":false,"doc_values":true},{"name":"ethlen","type":"string","count":0,"scripted":false,"indexed":true,"analyzed":false,"doc_values":true},{"name":"threat:triage:level","type":"number","count":0,"scripted":false,"indexed":true,"analyzed":false,"doc_values":true},{"name":"tcpflags","type":"string","count":0,"scripted":false,"indexed":true,"analyzed":true,"doc_values":false},{"name":"adapter:threatinteladapter:begin:ts","type":"date","count":0,"scripted":false,"indexed":true,"analyzed":false,"doc_values":true},{"name":"_source","type":"_source","count":0,"scripted":false,"indexed":false,"analyzed":false,"doc_values":false},{"name":"enrichments:geo:ip_dst_addr:country","type":"string","count":0,"scripted":false,"indexed":true,"analyzed":false,"doc_values":true},{"name":"enrichments:geo:ip_dst_addr:locID","type":"string","count":0,"scripted":false,"indexed":true,"analyzed":false,"doc_values":true},{"name":"_index","type":"string","count":0,"scripted":false,"indexed":false,"analyzed":false,"doc_values":false},{"name":"ip_dst_port","type":"number","count":0,"scripted":false,"indexed":true,"analyzed":false,"doc_values":true},{"name":"threatinteljoinbolt:joiner:ts","type":"date","count":0,"scripted":false,"indexed":true,"analyzed":false,"doc_values":true},{"name":"enrichments:geo:ip_dst_addr:dmaCode","type":"string","count":0,"scripted":false,"indexed":true,"analyzed":false,"doc_values":true},{"name":"sig_rev","type":"string","count":0,"scripted":false,"indexed":true,"analyzed":true,"doc_values":false},{"name":"ethsrc","type":"string","count":0,"scripted":false,"indexed":true,"analyzed":false,"doc_values":true},{"name":"tcpseq","type":"string","count":0,"scripted":false,"indexed":true,"analyzed":true,"doc_values":false},{"name":"enrichmentsplitterbolt:splitter:begin:ts","type":"date","count":0,"scripted":false,"indexed":true,"analyzed":false,"doc_values":true},{"name":"tcpwindow","type":"string","count":0,"scripted":false,"indexed":true,"analyzed":true,"doc_values":false},{"name":"enrichments:geo:ip_dst_addr:latitude","type":"number","count":0,"scripted":false,"indexed":true,"analyzed":false,"doc_values":true},{"name":"source:type","type":"string","count":0,"scripted":false,"indexed":true,"analyzed":false,"doc_values":true},{"name":"ip_dst_addr","type":"ip","count":0,"scripted":false,"indexed":true,"analyzed":false,"doc_values":true},{"name":"adapter:hostfromjsonlistadapter:end:ts","type":"date","count":0,"scripted":false,"indexed":true,"analyzed":false,"doc_values":true},{"name":"tos","type":"number","count":0,"scripted":false,"indexed":true,"analyzed":false,"doc_values":true},{"name":"ip_src_addr","type":"ip","count":0,"scripted":false,"indexed":true,"analyzed":false,"doc_values":true},{"name":"threatintelsplitterbolt:splitter:end:ts","type":"date","count":0,"scripted":false,"indexed":true,"analyzed":false,"doc_values":true},{"name":"enrichments:geo:ip_src_addr:latitude","type":"number","count":0,"scripted":false,"indexed":true,"analyzed":false,"doc_values":true},{"name":"enrichments:geo:ip_dst_addr:longitude","type":"number","count":0,"scripted":false,"indexed":true,"analyzed":false,"doc_values":true},{"name":"timestamp","type":"date","count":0,"scripted":false,"indexed":true,"analyzed":false,"doc_values":true},{"name":"ethdst","type":"string","count":0,"scripted":false,"indexed":true,"analyzed":false,"doc_values":true},{"name":"enrichments:geo:ip_dst_addr:postalCode","type":"string","count":0,"scripted":false,"indexed":true,"analyzed":false,"doc_values":true},{"name":"is_alert","type":"boolean","count":0,"scripted":false,"indexed":true,"analyzed":false,"doc_values":true},{"name":"enrichments:geo:ip_src_addr:country","type":"string","count":0,"scripted":false,"indexed":true,"analyzed":false,"doc_values":true},{"name":"ttl","type":"number","count":0,"scripted":false,"indexed":true,"analyzed":false,"doc_values":true},{"name":"iplen","type":"number","count":0,"scripted":false,"indexed":true,"analyzed":false,"doc_values":true},{"name":"ip_src_port","type":"number","count":0,"scripted":false,"indexed":true,"analyzed":false,"doc_values":true},{"name":"threatintelsplitterbolt:splitter:begin:ts","type":"date","count":0,"scripted":false,"indexed":true,"analyzed":false,"doc_values":true},{"name":"sig_id","type":"number","count":0,"scripted":false,"indexed":true,"analyzed":false,"doc_values":true},{"name":"sig_generator","type":"string","count":0,"scripted":false,"indexed":true,"analyzed":false,"doc_values":true},{"name":"enrichments:geo:ip_src_addr:city","type":"string","count":0,"scripted":false,"indexed":true,"analyzed":false,"doc_values":true},{"name":"_id","type":"string","count":0,"scripted":false,"indexed":false,"analyzed":false,"doc_values":false},{"name":"_type","type":"string","count":0,"scripted":false,"indexed":false,"analyzed":false,"doc_values":false},{"name":"_score","type":"number","count":0,"scripted":false,"indexed":false,"analyzed":false,"doc_values":false}]
p627
sVtimeFieldName
p628
Vtimestamp
p629
sVtitle
p630
Vsnort*
p631
ssV_index
p632
V.kibana
p633
sa(dp634
V_score
p635
F1
sV_type
p636
Vindex-pattern
p637
sV_id
p638
Vyaf*
p639
sV_source
p640
(dp641
Vfields
p642
V[{"name":"enrichments:geo:ip_dst_addr:location_point","type":"geo_point","count":0,"scripted":false,"indexed":true,"analyzed":false,"doc_values":true},{"name":"isn","type":"string","count":0,"scripted":false,"indexed":true,"analyzed":false,"doc_values":true},{"name":"enrichmentjoinbolt:joiner:ts","type":"date","count":0,"scripted":false,"indexed":true,"analyzed":false,"doc_values":true},{"name":"dip","type":"string","count":0,"scripted":false,"indexed":true,"analyzed":false,"doc_values":true},{"name":"adapter:geoadapter:begin:ts","type":"date","count":0,"scripted":false,"indexed":true,"analyzed":false,"doc_values":true},{"name":"dp","type":"string","count":0,"scripted":false,"indexed":true,"analyzed":false,"doc_values":true},{"name":"protocol","type":"string","count":0,"scripted":false,"indexed":true,"analyzed":true,"doc_values":false},{"name":"rpkt","type":"number","count":0,"scripted":false,"indexed":true,"analyzed":false,"doc_values":true},{"name":"original_string","type":"string","count":0,"scripted":false,"indexed":true,"analyzed":true,"doc_values":false},{"name":"adapter:threatinteladapter:end:ts","type":"date","count":0,"scripted":false,"indexed":true,"analyzed":false,"doc_values":true},{"name":"adapter:geoadapter:end:ts","type":"date","count":0,"scripted":false,"indexed":true,"analyzed":false,"doc_values":true},{"name":"tag","type":"string","count":0,"scripted":false,"indexed":true,"analyzed":false,"doc_values":true},{"name":"app","type":"string","count":0,"scripted":false,"indexed":true,"analyzed":false,"doc_values":true},{"name":"oct","type":"number","count":0,"scripted":false,"indexed":true,"analyzed":false,"doc_values":true},{"name":"end_reason","type":"string","count":0,"scripted":false,"indexed":true,"analyzed":true,"doc_values":false},{"name":"enrichmentsplitterbolt:splitter:end:ts","type":"date","count":0,"scripted":false,"indexed":true,"analyzed":false,"doc_values":true},{"name":"enrichments:geo:ip_dst_addr:city","type":"string","count":0,"scripted":false,"indexed":true,"analyzed":false,"doc_values":true},{"name":"adapter:hostfromjsonlistadapter:begin:ts","type":"date","count":0,"scripted":false,"indexed":true,"analyzed":false,"doc_values":true},{"name":"start_time","type":"date","count":0,"scripted":false,"indexed":true,"analyzed":false,"doc_values":true},{"name":"riflags","type":"string","count":0,"scripted":false,"indexed":true,"analyzed":true,"doc_values":false},{"name":"proto","type":"string","count":0,"scripted":false,"indexed":true,"analyzed":false,"doc_values":true},{"name":"adapter:threatinteladapter:begin:ts","type":"date","count":0,"scripted":false,"indexed":true,"analyzed":false,"doc_values":true},{"name":"_source","type":"_source","count":0,"scripted":false,"indexed":false,"analyzed":false,"doc_values":false},{"name":"enrichments:geo:ip_dst_addr:country","type":"string","count":0,"scripted":false,"indexed":true,"analyzed":false,"doc_values":true},{"name":"enrichments:geo:ip_dst_addr:locID","type":"string","count":0,"scripted":false,"indexed":true,"analyzed":false,"doc_values":true},{"name":"iflags","type":"string","count":0,"scripted":false,"indexed":true,"analyzed":false,"doc_values":true},{"name":"_index","type":"string","count":0,"scripted":false,"indexed":false,"analyzed":false,"doc_values":false},{"name":"ip_dst_port","type":"number","count":0,"scripted":false,"indexed":true,"analyzed":false,"doc_values":true},{"name":"enrichments:geo:ip_dst_addr:dmaCode","type":"string","count":0,"scripted":false,"indexed":true,"analyzed":false,"doc_values":true},{"name":"threatinteljoinbolt:joiner:ts","type":"date","count":0,"scripted":false,"indexed":true,"analyzed":false,"doc_values":true},{"name":"uflags","type":"string","count":0,"scripted":false,"indexed":true,"analyzed":false,"doc_values":true},{"name":"enrichmentsplitterbolt:splitter:begin:ts","type":"date","count":0,"scripted":false,"indexed":true,"analyzed":false,"doc_values":true},{"name":"enrichments:geo:ip_dst_addr:latitude","type":"number","count":0,"scripted":false,"indexed":true,"analyzed":false,"doc_values":true},{"name":"duration","type":"number","count":0,"scripted":false,"indexed":true,"analyzed":false,"doc_values":true},{"name":"source:type","type":"string","count":0,"scripted":false,"indexed":true,"analyzed":false,"doc_values":true},{"name":"ip_dst_addr","type":"ip","count":0,"scripted":false,"indexed":true,"analyzed":false,"doc_values":true},{"name":"pkt","type":"number","count":0,"scripted":false,"indexed":true,"analyzed":false,"doc_values":true},{"name":"adapter:hostfromjsonlistadapter:end:ts","type":"date","count":0,"scripted":false,"indexed":true,"analyzed":false,"doc_values":true},{"name":"ruflags","type":"string","count":0,"scripted":false,"indexed":true,"analyzed":false,"doc_values":true},{"name":"roct","type":"number","count":0,"scripted":false,"indexed":true,"analyzed":false,"doc_values":true},{"name":"sip","type":"string","count":0,"scripted":false,"indexed":true,"analyzed":false,"doc_values":true},{"name":"sp","type":"string","count":0,"scripted":false,"indexed":true,"analyzed":false,"doc_values":true},{"name":"ip_src_addr","type":"ip","count":0,"scripted":false,"indexed":true,"analyzed":false,"doc_values":true},{"name":"rtag","type":"string","count":0,"scripted":false,"indexed":true,"analyzed":false,"doc_values":true},{"name":"threatintelsplitterbolt:splitter:end:ts","type":"date","count":0,"scripted":false,"indexed":true,"analyzed":false,"doc_values":true},{"name":"enrichments:geo:ip_dst_addr:longitude","type":"number","count":0,"scripted":false,"indexed":true,"analyzed":false,"doc_values":true},{"name":"timestamp","type":"date","count":0,"scripted":false,"indexed":true,"analyzed":false,"doc_values":true},{"name":"end-reason","type":"string","count":0,"scripted":false,"indexed":true,"analyzed":true,"doc_values":false},{"name":"risn","type":"string","count":0,"scripted":false,"indexed":true,"analyzed":false,"doc_values":true},{"name":"end_time","type":"date","count":0,"scripted":false,"indexed":true,"analyzed":false,"doc_values":true},{"name":"enrichments:geo:ip_dst_addr:postalCode","type":"string","count":0,"scripted":false,"indexed":true,"analyzed":false,"doc_values":true},{"name":"rtt","type":"number","count":0,"scripted":false,"indexed":true,"analyzed":false,"doc_values":true},{"name":"ip_src_port","type":"number","count":0,"scripted":false,"indexed":true,"analyzed":false,"doc_values":true},{"name":"threatintelsplitterbolt:splitter:begin:ts","type":"date","count":0,"scripted":false,"indexed":true,"analyzed":false,"doc_values":true},{"name":"_id","type":"string","count":0,"scripted":false,"indexed":false,"analyzed":false,"doc_values":false},{"name":"_type","type":"string","count":0,"scripted":false,"indexed":false,"analyzed":false,"doc_values":false},{"name":"_score","type":"number","count":0,"scripted":false,"indexed":false,"analyzed":false,"doc_values":false}]
p643
sVtimeFieldName
p644
Vtimestamp
p645
sVtitle
p646
Vyaf*
p647
ssV_index
p648
V.kibana
p649
sa(dp650
V_score
p651
F1
sV_type
p652
Vsearch
p653
sV_id
p654
Vweb-search
p655
sV_source
p656
(dp657
Vsort
p658
(lp659
Vtimestamp
p660
aVdesc
p661
asVhits
p662
I0
sVdescription
p663
V
sVtitle
p664
VWeb Requests
p665
sVversion
p666
I1
sVkibanaSavedObjectMeta
p667
(dp668
VsearchSourceJSON
p669
V{"index":"bro*","query":{"query_string":{"query":"protocol: http OR protocol: https","analyze_wildcard":true}},"filter":[],"highlight":{"pre_tags":["@kibana-highlighted-field@"],"post_tags":["@/kibana-highlighted-field@"],"fields":{"*":{}},"require_field_match":false,"fragment_size":2147483647}}
p670
ssVcolumns
p671
(lp672
Vmethod
p673
aVhost
p674
aVuri
p675
aVreferrer
p676
aVip_src_addr
p677
aVip_dst_addr
p678
assV_index
p679
V.kibana
p680
sa(dp681
V_score
p682
F1
sV_type
p683
Vvisualization
p684
sV_id
p685
VLocation-Header
p686
sV_source
p687
(dp688
VvisState
p689
V{"title":"Enrichment","type":"markdown","params":{"markdown":"Apache Metron can perform real-time enrichment of telemetry data as it is consumed. To highlight this feature, all of the IP address fields collected from the default sensor suite were used to perform geo-ip lookups.  This data was then used to pinpoint each location on the map."},"aggs":[],"listeners":{}}
p690
sVdescription
p691
V
sVtitle
p692
VEnrichment
p693
sVuiStateJSON
p694
V{}
p695
sVversion
p696
I1
sVkibanaSavedObjectMeta
p697
(dp698
VsearchSourceJSON
p699
V{"query":{"query_string":{"query":"*","analyze_wildcard":true}},"filter":[]}
p700
sssV_index
p701
V.kibana
p702
sa(dp703
V_score
p704
F1
sV_type
p705
Vvisualization
p706
sV_id
p707
VSnort-Alert-Types
p708
sV_source
p709
(dp710
VvisState
p711
V{"title":"Snort Alert Types","type":"metric","params":{"handleNoResults":true,"fontSize":60},"aggs":[{"id":"1","type":"cardinality","schema":"metric","params":{"field":"sig_id","customLabel":"Alert Type(s)"}}],"listeners":{}}
p712
sVdescription
p713
V
sVtitle
p714
VSnort Alert Types
p715
sVuiStateJSON
p716
V{}
p717
sVversion
p718
I1
sVkibanaSavedObjectMeta
p719
(dp720
VsearchSourceJSON
p721
V{"index":"snort*","query":{"query_string":{"query":"*","analyze_wildcard":true}},"filter":[]}
p722
sssV_index
p723
V.kibana
p724
sa(dp725
V_score
p726
F1
sV_type
p727
Vvisualization
p728
sV_id
p729
VFrequent-DNS-Queries
p730
sV_source
p731
(dp732
VvisState
p733
V{"title":"Frequent DNS Requests","type":"table","params":{"perPage":10,"showPartialRows":false,"showMeticsAtAllLevels":false},"aggs":[{"id":"1","type":"count","schema":"metric","params":{}},{"id":"2","type":"terms","schema":"bucket","params":{"field":"query","size":5,"order":"desc","orderBy":"1"}}],"listeners":{}}
p734
sVdescription
p735
V
sVtitle
p736
VFrequent DNS Requests
p737
sVuiStateJSON
p738
V{}
p739
sVversion
p740
I1
sVkibanaSavedObjectMeta
p741
(dp742
VsearchSourceJSON
p743
V{"index":"bro*","query":{"query_string":{"query":"*","analyze_wildcard":true}},"filter":[]}
p744
sssV_index
p745
V.kibana
p746
sa(dp747
V_score
p748
F1
sV_type
p749
Vvisualization
p750
sV_id
p751
VDNS-Request(s)
p752
sV_source
p753
(dp754
VvisState
p755
V{"title":"DNS Requests","type":"metric","params":{"handleNoResults":true,"fontSize":60},"aggs":[{"id":"1","type":"count","schema":"metric","params":{}}],"listeners":{}}
p756
sVdescription
p757
V
sVtitle
p758
VDNS Requests
p759
sVuiStateJSON
p760
V{}
p761
sVversion
p762
I1
sVsavedSearchId
p763
Vdns-search
p764
sVkibanaSavedObjectMeta
p765
(dp766
VsearchSourceJSON
p767
V{"filter":[]}
p768
sssV_index
p769
V.kibana
p770
sa(dp771
V_score
p772
F1
sV_type
p773
Vvisualization
p774
sV_id
p775
VHTTP(S)-Requests
p776
sV_source
p777
(dp778
VvisState
p779
V{"title":"Web Requests","type":"metric","params":{"handleNoResults":true,"fontSize":60},"aggs":[{"id":"1","type":"count","schema":"metric","params":{}}],"listeners":{}}
p780
sVdescription
p781
V
sVtitle
p782
VWeb Requests
p783
sVuiStateJSON
p784
V{}
p785
sVversion
p786
I1
sVsavedSearchId
p787
Vweb-search
p788
sVkibanaSavedObjectMeta
p789
(dp790
VsearchSourceJSON
p791
V{"filter":[]}
p792
sssV_index
p793
V.kibana
p794
sa(dp795
V_score
p796
F1
sV_type
p797
Vvisualization
p798
sV_id
p799
VErrors-Over-Time
p800
sV_source
p801
(dp802
VvisState
p803
V{\u000a  "title": "Error Over Time",\u000a  "type": "line",\u000a  "params": {\u000a    "shareYAxis": true,\u000a    "addTooltip": true,\u000a    "addLegend": true,\u000a    "showCircles": true,\u000a    "smoothLines": false,\u000a    "interpolate": "linear",\u000a    "scale": "linear",\u000a    "drawLinesBetweenPoints": true,\u000a    "radiusRatio": 9,\u000a    "times": [],\u000a    "addTimeMarker": true,\u000a    "defaultYExtents": false,\u000a    "setYExtents": false,\u000a    "yAxis": {\u000a      "min": 0\u000a    }\u000a  },\u000a  "aggs": [\u000a    {\u000a      "id": "1",\u000a      "type": "count",\u000a      "schema": "metric",\u000a      "params": {}\u000a    },\u000a    {\u000a      "id": "2",\u000a      "type": "date_histogram",\u000a      "schema": "segment",\u000a      "params": {\u000a        "field": "timestamp",\u000a        "interval": "auto",\u000a        "customInterval": "2h",\u000a        "min_doc_count": 1,\u000a        "extended_bounds": {}\u000a      }\u000a    }\u000a  ],\u000a  "listeners": {}\u000a}
p804
sVdescription
p805
V
sVtitle
p806
VErrors Over Time
p807
sVuiStateJSON
p808
V{}
p809
sVversion
p810
I1
sVkibanaSavedObjectMeta
p811
(dp812
VsearchSourceJSON
p813
V{\u000a  "index": "error*",\u000a  "query": {\u000a    "query_string": {\u000a      "query": "*",\u000a      "analyze_wildcard": true\u000a    }\u000a  },\u000a  "filter": []\u000a}
p814
sssV_index
p815
V.kibana
p816
sa(dp817
V_score
p818
F1
sV_type
p819
Vvisualization
p820
sV_id
p821
VError-Source-Proportion
p822
sV_source
p823
(dp824
VvisState
p825
V{\u000a  "title": "Sensor Type Proportion",\u000a  "type": "pie",\u000a  "params": {\u000a    "shareYAxis": true,\u000a    "addTooltip": true,\u000a    "addLegend": true,\u000a    "isDonut": false\u000a  },\u000a  "aggs": [\u000a    {\u000a      "id": "1",\u000a      "type": "count",\u000a      "schema": "metric",\u000a      "params": {}\u000a    },\u000a    {\u000a      "id": "2",\u000a      "type": "terms",\u000a      "schema": "segment",\u000a      "params": {\u000a        "field": "failed_sensor_type",\u000a        "size": 5,\u000a        "order": "desc",\u000a        "orderBy": "1",\u000a        "customLabel": "Sensor"\u000a      }\u000a    }\u000a  ],\u000a  "listeners": {}\u000a}
p826
sVdescription
p827
V
sVtitle
p828
VError Source Proportion
p829
sVuiStateJSON
p830
V{}
p831
sVversion
p832
I1
sVkibanaSavedObjectMeta
p833
(dp834
VsearchSourceJSON
p835
V{\u000a  "index": "error*",\u000a  "query": {\u000a    "query_string": {\u000a      "query": "*",\u000a      "analyze_wildcard": true\u000a    }\u000a  },\u000a  "filter": []\u000a}
p836
sssV_index
p837
V.kibana
p838
sa(dp839
V_score
p840
F1
sV_type
p841
Vindex-pattern
p842
sV_id
p843
Verror*
p844
sV_source
p845
(dp846
Vfields
p847
V[{"name":"exception","type":"string","count":0,"scripted":false,"indexed":true,"analyzed":false,"doc_values":true},{"name":"stack","type":"string","count":0,"scripted":false,"indexed":true,"analyzed":false,"doc_values":true},{"name":"_index","type":"string","count":0,"scripted":false,"indexed":false,"analyzed":false,"doc_values":false},{"name":"error_hash","type":"string","count":1,"scripted":false,"indexed":true,"analyzed":false,"doc_values":true},{"name":"raw_message","type":"string","count":0,"scripted":false,"indexed":true,"analyzed":false,"doc_values":true},{"name":"message","type":"string","count":0,"scripted":false,"indexed":true,"analyzed":false,"doc_values":true},{"name":"failed_sensor_type","type":"string","count":1,"scripted":false,"indexed":true,"analyzed":false,"doc_values":true},{"name":"hostname","type":"string","count":0,"scripted":false,"indexed":true,"analyzed":false,"doc_values":true},{"name":"source:type","type":"string","count":1,"scripted":false,"indexed":true,"analyzed":true,"doc_values":false},{"name":"error_type","type":"string","count":0,"scripted":false,"indexed":true,"analyzed":false,"doc_values":true},{"name":"error_fields","type":"string","count":0,"scripted":false,"indexed":true,"analyzed":false,"doc_values":true},{"name":"_source","type":"_source","count":0,"scripted":false,"indexed":false,"analyzed":false,"doc_values":false},{"name":"raw_message_bytes","type":"string","count":0,"scripted":false,"indexed":false,"analyzed":false,"doc_values":false},{"name":"timestamp","type":"date","count":1,"scripted":false,"indexed":true,"analyzed":false,"doc_values":true},{"name":"_id","type":"string","count":0,"scripted":false,"indexed":false,"analyzed":false,"doc_values":false},{"name":"_type","type":"string","count":0,"scripted":false,"indexed":false,"analyzed":false,"doc_values":false},{"name":"_score","type":"number","count":0,"scripted":false,"indexed":false,"analyzed":false,"doc_values":false}]
p848
sVtimeFieldName
p849
Vtimestamp
p850
sVtitle
p851
Verror*
p852
ssV_index
p853
V.kibana
p854
sa(dp855
V_score
p856
F1
sV_type
p857
Vdashboard
p858
sV_id
p859
VMetron-Error-Dashboard
p860
sV_source
p861
(dp862
Vhits
p863
I0
sVtimeRestore
p864
I00
sVdescription
p865
V
sVtitle
p866
VMetron Error Dashboard
p867
sVuiStateJSON
p868
V{"P-2":{"vis":{"legendOpen":true}},"P-23":{"vis":{"colors":{"amb3.service.consul":"#629E51","host":"#629E51","host2":"#9AC48A","hostAnother":"#7EB26D","hostNew":"#B7DBAB"}}},"P-3":{"vis":{"colors":{"fourth":"#1F78C1","new_error":"#BADFF4","test_error":"#82B5D8"}}},"P-5":{"vis":{"colors":{"another_new_parser_error":"#806EB7","new_parser_error":"#AEA2E0","parser_error":"#614D93"}}}}
p869
sVpanelsJSON
p870
V[{"col":5,"id":"Errors-By-Error-Type","panelIndex":2,"row":7,"size_x":8,"size_y":3,"type":"visualization"},{"col":1,"id":"Error-Source-Proportion","panelIndex":3,"row":7,"size_x":4,"size_y":3,"type":"visualization"},{"col":5,"id":"Errors-By-Source-Type","panelIndex":4,"row":10,"size_x":8,"size_y":3,"type":"visualization"},{"col":1,"id":"Error-Type-Proportion","panelIndex":5,"row":10,"size_x":4,"size_y":3,"type":"visualization"},{"col":1,"id":"Errors-Over-Time","panelIndex":14,"row":3,"size_x":12,"size_y":4,"type":"visualization"},{"col":8,"id":"Unique-Error-Messages","panelIndex":19,"row":1,"size_x":4,"size_y":2,"type":"visualization"},{"col":3,"id":"Total-Error-Messages","panelIndex":20,"row":1,"size_x":4,"size_y":2,"type":"visualization"},{"col":5,"id":"Errors-By-Hostname","panelIndex":22,"row":13,"size_x":8,"size_y":3,"type":"visualization"},{"col":1,"id":"Error-Hostname-Proportion","panelIndex":23,"row":13,"size_x":4,"size_y":3,"type":"visualization"},{"col":1,"columns":["failed_sensor_type","error_type","exception","hostname","message","raw_message","error_hash"],"id":"Errors","panelIndex":25,"row":23,"size_x":12,"size_y":7,"sort":["timestamp","desc"],"type":"search"}]
p871
sVoptionsJSON
p872
V{"darkTheme":false}
p873
sVversion
p874
I1
sVkibanaSavedObjectMeta
p875
(dp876
VsearchSourceJSON
p877
V{"filter":[{"query":{"query_string":{"analyze_wildcard":true,"query":"*"}}}]}
p878
sssV_index
p879
V.kibana
p880
sa(dp881
V_score
p882
F1
sV_type
p883
Vconfig
p884
sV_id
p885
V4.5.3
p886
sV_source
p887
(dp888
VbuildNum
p889
I9892
sVdefaultIndex
p890
Vbro*
p891
ssV_index
p892
V.kibana
p893
sa(dp894
V_score
p895
F1
sV_type
p896
Vsearch
p897
sV_id
p898
Vdns-search
p899
sV_source
p900
(dp901
Vsort
p902
(lp903
Vtimestamp
p904
aVdesc
p905
asVhits
p906
I0
sVdescription
p907
V
sVtitle
p908
VDNS Requests
p909
sVversion
p910
I1
sVkibanaSavedObjectMeta
p911
(dp912
VsearchSourceJSON
p913
V{"index":"bro*","query":{"query_string":{"query":"protocol: dns","analyze_wildcard":true}},"filter":[],"highlight":{"pre_tags":["@kibana-highlighted-field@"],"post_tags":["@/kibana-highlighted-field@"],"fields":{"*":{}},"require_field_match":false,"fragment_size":2147483647}}
p914
ssVcolumns
p915
(lp916
Vquery
p917
aVqtype_name
p918
aVanswers
p919
aVip_src_addr
p920
aVip_dst_addr
p921
assV_index
p922
V.kibana
p923
sa(dp924
V_score
p925
F1
sV_type
p926
Vvisualization
p927
sV_id
p928
VDNS-Requests-Header
p929
sV_source
p930
(dp931
VvisState
p932
V{"aggs":[],"listeners":{},"params":{"markdown":"[Bro](https://www.bro.org/) is extracting DNS requests and responses being made over the network. Understanding who is making those requests, the frequency, and types can provide a deep understanding of the actors present on the network."},"title":"DNS Requests","type":"markdown"}
p933
sVdescription
p934
V
sVtitle
p935
VDNS Requests
p936
sVuiStateJSON
p937
V{}
p938
sVversion
p939
I1
sVkibanaSavedObjectMeta
p940
(dp941
VsearchSourceJSON
p942
V{"query":{"query_string":{"analyze_wildcard":true,"query":"*"}},"filter":[]}
p943
sssV_index
p944
V.kibana
p945
sa(dp946
V_score
p947
F1
sV_type
p948
Vvisualization
p949
sV_id
p950
VYAF-Flows-Header
p951
sV_source
p952
(dp953
VvisState
p954
V{"title":"YAF","type":"markdown","params":{"markdown":"[YAF](https://tools.netsa.cert.org/yaf/yaf.html) can be used to generate Netflow-like flow records.  These flow records provide significant visibility of the actors communicating over the target network."},"aggs":[],"listeners":{}}
p955
sVdescription
p956
V
sVtitle
p957
VYAF
p958
sVuiStateJSON
p959
V{}
p960
sVversion
p961
I1
sVkibanaSavedObjectMeta
p962
(dp963
VsearchSourceJSON
p964
V{"query":{"query_string":{"analyze_wildcard":true,"query":"*"}},"filter":[]}
p965
sssV_index
p966
V.kibana
p967
sa(dp968
V_score
p969
F1
sV_type
p970
Vvisualization
p971
sV_id
p972
VTop-5-Exceptions
p973
sV_source
p974
(dp975
VvisState
p976
V{"title":"Top-5 Exceptions","type":"histogram","params":{"shareYAxis":true,"addTooltip":true,"addLegend":true,"scale":"linear","mode":"stacked","times":[],"addTimeMarker":false,"defaultYExtents":false,"setYExtents":false,"yAxis":{}},"aggs":[{"id":"1","type":"count","schema":"metric","params":{}},{"id":"2","type":"terms","schema":"segment","params":{"field":"exception","size":5,"order":"desc","orderBy":"1","customLabel":"Exceptions"}}],"listeners":{}}
p977
sVdescription
p978
V
sVtitle
p979
VTop-5 Exceptions
p980
sVuiStateJSON
p981
V{}
p982
sVversion
p983
I1
sVkibanaSavedObjectMeta
p984
(dp985
VsearchSourceJSON
p986
V{"index":"error*","query":{"query_string":{"query":"*","analyze_wildcard":true}},"filter":[]}
p987
sssV_index
p988
V.kibana
p989
sa(dp990
V_score
p991
F1
sV_type
p992
Vvisualization
p993
sV_id
p994
VFrequent-DNS-Requests
p995
sV_source
p996
(dp997
VvisState
p998
V{"title":"Frequent DNS Requests","type":"table","params":{"perPage":10,"showPartialRows":false,"showMeticsAtAllLevels":false},"aggs":[{"id":"1","type":"count","schema":"metric","params":{}},{"id":"2","type":"terms","schema":"bucket","params":{"field":"query","size":5,"order":"desc","orderBy":"1","customLabel":"DNS Query"}}],"listeners":{}}
p999
sVdescription
p1000
V
sVtitle
p1001
VFrequent DNS Requests
p1002
sVuiStateJSON
p1003
V{}
p1004
sVversion
p1005
I1
sVkibanaSavedObjectMeta
p1006
(dp1007
VsearchSourceJSON
p1008
V{"index":"bro*","query":{"query_string":{"query":"*","analyze_wildcard":true}},"filter":[]}
p1009
sssV_index
p1010
V.kibana
p1011
sa(dp1012
V_score
p1013
F1
sV_type
p1014
Vvisualization
p1015
sV_id
p1016
VCountry
p1017
sV_source
p1018
(dp1019
VvisState
p1020
V{"title":"By Country","type":"pie","params":{"shareYAxis":true,"addTooltip":true,"addLegend":true,"isDonut":false},"aggs":[{"id":"1","type":"count","schema":"metric","params":{}},{"id":"2","type":"terms","schema":"segment","params":{"field":"enrichments:geo:ip_src_addr:country","size":5,"order":"desc","orderBy":"1"}}],"listeners":{}}
p1021
sVdescription
p1022
V
sVtitle
p1023
VBy Country
p1024
sVuiStateJSON
p1025
V{}
p1026
sVversion
p1027
I1
sVkibanaSavedObjectMeta
p1028
(dp1029
VsearchSourceJSON
p1030
V{"index":["yaf*","bro*","snort*"],"query":{"query_string":{"query":"*","analyze_wildcard":true}},"filter":[]}
p1031
sssV_index
p1032
V.kibana
p1033
sa(dp1034
V_score
p1035
F1
sV_type
p1036
Vvisualization
p1037
sV_id
p1038
VFlow-Locations
p1039
sV_source
p1040
(dp1041
VvisState
p1042
V{"title":"Flow Locations","type":"tile_map","params":{"mapType":"Scaled Circle Markers","isDesaturated":true,"addTooltip":true,"heatMaxZoom":16,"heatMinOpacity":0.1,"heatRadius":25,"heatBlur":15,"heatNormalizeData":true,"wms":{"enabled":false,"url":"https://basemap.nationalmap.gov/arcgis/services/USGSTopo/MapServer/WMSServer","options":{"version":"1.3.0","layers":"0","format":"image/png","transparent":true,"attribution":"Maps provided by USGS","styles":""}}},"aggs":[{"id":"1","type":"count","schema":"metric","params":{}},{"id":"2","type":"geohash_grid","schema":"segment","params":{"field":"enrichments:geo:ip_dst_addr:location_point","autoPrecision":true,"precision":2}}],"listeners":{}}
p1043
sVdescription
p1044
V
sVtitle
p1045
VFlow Locations
p1046
sVuiStateJSON
p1047
V{}
p1048
sVversion
p1049
I1
sVkibanaSavedObjectMeta
p1050
(dp1051
VsearchSourceJSON
p1052
V{"index":["yaf*","bro*","snort*"],"query":{"query_string":{"query":"*","analyze_wildcard":true}},"filter":[]}
p1053
sssV_index
p1054
V.kibana
p1055
sa(dp1056
V_score
p1057
F1
sV_type
p1058
Vvisualization
p1059
sV_id
p1060
VTop-Destinations
p1061
sV_source
p1062
(dp1063
VvisState
p1064
V{"title":"Top Destinations","type":"table","params":{"perPage":10,"showPartialRows":false,"showMeticsAtAllLevels":false},"aggs":[{"id":"1","type":"count","schema":"metric","params":{}},{"id":"2","type":"terms","schema":"bucket","params":{"field":"ip_dst_addr","size":10,"order":"desc","orderBy":"1","customLabel":"Destination IP"}}],"listeners":{}}
p1065
sVdescription
p1066
V
sVtitle
p1067
VTop Destinations
p1068
sVuiStateJSON
p1069
V{}
p1070
sVversion
p1071
I1
sVkibanaSavedObjectMeta
p1072
(dp1073
VsearchSourceJSON
p1074
V{"index":["yaf*","bro*","snort*"],"query":{"query_string":{"query":"*","analyze_wildcard":true}},"filter":[]}
p1075
sssV_index
p1076
V.kibana
p1077
sa(dp1078
V_score
p1079
F1
sV_type
p1080
Vvisualization
p1081
sV_id
p1082
VUnusual-Referrers
p1083
sV_source
p1084
(dp1085
VvisState
p1086
V{"title":"Unusual Referrers","type":"table","params":{"perPage":10,"showPartialRows":false,"showMeticsAtAllLevels":false},"aggs":[{"id":"1","type":"count","schema":"metric","params":{}},{"id":"2","type":"significant_terms","schema":"bucket","params":{"field":"referrer","size":5,"customLabel":"Top 5 Unusual Referrers"}}],"listeners":{}}
p1087
sVdescription
p1088
V
sVtitle
p1089
VUnusual Referrers
p1090
sVuiStateJSON
p1091
V{}
p1092
sVversion
p1093
I1
sVsavedSearchId
p1094
Vweb-search
p1095
sVkibanaSavedObjectMeta
p1096
(dp1097
VsearchSourceJSON
p1098
V{"filter":[]}
p1099
sssV_index
p1100
V.kibana
p1101
sa.