(lp1
(dp2
V_score
p3
F1
sV_type
p4
Vvisualization
p5
sV_id
p6
VTop-Snort-Alerts-by-Source
p7
sV_source
p8
(dp9
VvisState
p10
V{"title":"Top Snort Alerts by Source","type":"table","params":{"perPage":10,"showPartialRows":false,"showMeticsAtAllLevels":false},"aggs":[{"id":"1","type":"count","schema":"metric","params":{}},{"id":"2","type":"terms","schema":"bucket","params":{"field":"ip_src_addr","size":10,"order":"desc","orderBy":"1","customLabel":"Source IP"}}],"listeners":{}}
p11
sVdescription
p12
V
sVtitle
p13
VTop Snort Alerts by Source
p14
sVuiStateJSON
p15
V{}
p16
sVversion
p17
I1
sVkibanaSavedObjectMeta
p18
(dp19
VsearchSourceJSON
p20
V{"index":"snort*","query":{"query_string":{"query":"*","analyze_wildcard":true}},"filter":[]}
p21
sssV_index
p22
V.kibana
p23
sa(dp24
V_score
p25
F1
sV_type
p26
Vvisualization
p27
sV_id
p28
VWelcome
p29
sV_source
p30
(dp31
VvisState
p32
V{"title":"Welcome to Apache Metron","type":"markdown","params":{"markdown":"This dashboard enables the validation of Apache Metron and the end-to-end functioning of its default sensor suite.  The default sensor suite includes [Snort](https://www.snort.org/), [Bro](https://www.bro.org/), and [YAF](https://tools.netsa.cert.org/yaf/).  One of Apache Metron's primary goals is to simplify the onboarding of additional sources of telemetry.  In a production deployment these default sensors should be replaced with ones applicable to the target environment.\u005cn\u005cnApache Metron enables disparate sources of telemetry to all be viewed under a 'single pane of glass.'  Telemetry from each of the default sensors can be searched, aggregated, summarized, and viewed within this dashboard. This dashboard should be used as a springboard upon which to create your own customized dashboards.\u005cn\u005cnThe panels below highlight the volume and variety of events that are currently being consumed by Apache Metron."},"aggs":[],"listeners":{}}
p33
sVdescription
p34
V
sVtitle
p35
VWelcome to Apache Metron
p36
sVuiStateJSON
p37
V{}
p38
sVversion
p39
I1
sVkibanaSavedObjectMeta
p40
(dp41
VsearchSourceJSON
p42
V{"query":{"query_string":{"analyze_wildcard":true,"query":"*"}},"filter":[]}
p43
sssV_index
p44
V.kibana
p45
sa(dp46
V_score
p47
F1
sV_type
p48
Vsearch
p49
sV_id
p50
Vsnort-search
p51
sV_source
p52
(dp53
Vsort
p54
(lp55
Vtimestamp
p56
aVdesc
p57
asVhits
p58
I0
sVdescription
p59
V
sVtitle
p60
VSnort Alerts
p61
sVversion
p62
I1
sVkibanaSavedObjectMeta
p63
(dp64
VsearchSourceJSON
p65
V{"index":"snort*","query":{"query_string":{"analyze_wildcard":true,"query":"*"}},"filter":[],"highlight":{"pre_tags":["@kibana-highlighted-field@"],"post_tags":["@/kibana-highlighted-field@"],"fields":{"*":{}},"require_field_match":false,"fragment_size":2147483647}}
p66
ssVcolumns
p67
(lp68
Vmsg
p69
aVsig_id
p70
aVip_src_addr
p71
aVip_src_port
p72
aVip_dst_addr
p73
aVip_dst_port
p74
assV_index
p75
V.kibana
p76
sa(dp77
V_score
p78
F1
sV_type
p79
Vsearch
p80
sV_id
p81
Vyaf-search
p82
sV_source
p83
(dp84
Vsort
p85
(lp86
Vtimestamp
p87
aVdesc
p88
asVhits
p89
I0
sVdescription
p90
V
sVtitle
p91
VYAF
p92
sVversion
p93
I1
sVkibanaSavedObjectMeta
p94
(dp95
VsearchSourceJSON
p96
V{"index":"yaf*","filter":[],"highlight":{"pre_tags":["@kibana-highlighted-field@"],"post_tags":["@/kibana-highlighted-field@"],"fields":{"*":{}},"require_field_match":false,"fragment_size":2147483647},"query":{"query_string":{"query":"*","analyze_wildcard":true}}}
p97
ssVcolumns
p98
(lp99
Vip_src_addr
p100
aVip_src_port
p101
aVip_dst_addr
p102
aVip_dst_port
p103
aVprotocol
p104
aVduration
p105
aVpkt
p106
assV_index
p107
V.kibana
p108
sa(dp109
V_score
p110
F1
sV_type
p111
Vconfig
p112
sV_id
p113
V4.5.1
p114
sV_source
p115
(dp116
VbuildNum
p117
I9892
sVdefaultIndex
p118
Vbro*
p119
ssV_index
p120
V.kibana
p121
sa(dp122
V_score
p123
F1
sV_type
p124
Vvisualization
p125
sV_id
p126
VYAF-Flow(s)
p127
sV_source
p128
(dp129
VvisState
p130
V{"title":"YAF Flows","type":"metric","params":{"handleNoResults":true,"fontSize":60},"aggs":[{"id":"1","type":"count","schema":"metric","params":{}}],"listeners":{}}
p131
sVdescription
p132
V
sVtitle
p133
VYAF Flows
p134
sVuiStateJSON
p135
V{}
p136
sVversion
p137
I1
sVkibanaSavedObjectMeta
p138
(dp139
VsearchSourceJSON
p140
V{"index":"yaf*","query":{"query_string":{"query":"*","analyze_wildcard":true}},"filter":[]}
p141
sssV_index
p142
V.kibana
p143
sa(dp144
V_score
p145
F1
sV_type
p146
Vvisualization
p147
sV_id
p148
VTotal-Events
p149
sV_source
p150
(dp151
VvisState
p152
V{"title":"Event Count","type":"metric","params":{"handleNoResults":true,"fontSize":60},"aggs":[{"id":"1","type":"count","schema":"metric","params":{"customLabel":"Events"}}],"listeners":{}}
p153
sVdescription
p154
V
sVtitle
p155
VEvent Count
p156
sVuiStateJSON
p157
V{}
p158
sVversion
p159
I1
sVkibanaSavedObjectMeta
p160
(dp161
VsearchSourceJSON
p162
V{"index":["yaf*", "bro*", "snort*"],"query":{"query_string":{"query":"*","analyze_wildcard":true}},"filter":[]}
p163
sssV_index
p164
V.kibana
p165
sa(dp166
V_score
p167
F1
sV_type
p168
Vvisualization
p169
sV_id
p170
VUnique-Location(s)
p171
sV_source
p172
(dp173
VvisState
p174
V{"title":"Geo-IP Locations","type":"metric","params":{"handleNoResults":true,"fontSize":60},"aggs":[{"id":"1","type":"cardinality","schema":"metric","params":{"field":"enrichments:geo:ip_src_addr:locID","customLabel":"Unique Location(s)"}}],"listeners":{}}
p175
sVdescription
p176
V
sVtitle
p177
VGeo-IP Locations
p178
sVuiStateJSON
p179
V{}
p180
sVversion
p181
I1
sVkibanaSavedObjectMeta
p182
(dp183
VsearchSourceJSON
p184
V{"index":["yaf*", "bro*", "snort*"],"query":{"query_string":{"query":"*","analyze_wildcard":true}},"filter":[]}
p185
sssV_index
p186
V.kibana
p187
sa(dp188
V_score
p189
F1
sV_type
p190
Vvisualization
p191
sV_id
p192
VSnort-Alert-Types
p193
sV_source
p194
(dp195
VvisState
p196
V{"title":"Snort Alert Types","type":"metric","params":{"handleNoResults":true,"fontSize":60},"aggs":[{"id":"1","type":"cardinality","schema":"metric","params":{"field":"sig_id","customLabel":"Alert Type(s)"}}],"listeners":{}}
p197
sVdescription
p198
V
sVtitle
p199
VSnort Alert Types
p200
sVuiStateJSON
p201
V{}
p202
sVversion
p203
I1
sVkibanaSavedObjectMeta
p204
(dp205
VsearchSourceJSON
p206
V{"index":"snort*","query":{"query_string":{"query":"*","analyze_wildcard":true}},"filter":[]}
p207
sssV_index
p208
V.kibana
p209
sa(dp210
V_score
p211
F1
sV_type
p212
Vindex-pattern
p213
sV_id
p214
Vsnort*
p215
sV_source
p216
(dp217
Vfields
p218
V[{"name":"msg","type":"string","count":0,"scripted":false,"indexed":true,"analyzed":true,"doc_values":false},{"name":"enrichments:geo:ip_dst_addr:location_point","type":"geo_point","count":0,"scripted":false,"indexed":true,"analyzed":false,"doc_values":true},{"name":"dgmlen","type":"number","count":0,"scripted":false,"indexed":true,"analyzed":false,"doc_values":true},{"name":"enrichments:geo:ip_src_addr:longitude","type":"number","count":0,"scripted":false,"indexed":true,"analyzed":false,"doc_values":true},{"name":"enrichmentjoinbolt:joiner:ts","type":"date","count":0,"scripted":false,"indexed":true,"analyzed":false,"doc_values":true},{"name":"enrichments:geo:ip_src_addr:dmaCode","type":"string","count":0,"scripted":false,"indexed":true,"analyzed":false,"doc_values":true},{"name":"adapter:geoadapter:begin:ts","type":"date","count":0,"scripted":false,"indexed":true,"analyzed":false,"doc_values":true},{"name":"tcpack","type":"string","count":0,"scripted":false,"indexed":true,"analyzed":true,"doc_values":false},{"name":"protocol","type":"string","count":0,"scripted":false,"indexed":true,"analyzed":false,"doc_values":true},{"name":"adapter:threatinteladapter:end:ts","type":"date","count":0,"scripted":false,"indexed":true,"analyzed":false,"doc_values":true},{"name":"enrichments:geo:ip_src_addr:locID","type":"string","count":0,"scripted":false,"indexed":true,"analyzed":false,"doc_values":true},{"name":"original_string","type":"string","count":0,"scripted":false,"indexed":true,"analyzed":true,"doc_values":false},{"name":"adapter:geoadapter:end:ts","type":"date","count":0,"scripted":false,"indexed":true,"analyzed":false,"doc_values":true},{"name":"id","type":"number","count":0,"scripted":false,"indexed":true,"analyzed":false,"doc_values":true},{"name":"enrichments:geo:ip_src_addr:location_point","type":"geo_point","count":0,"scripted":false,"indexed":true,"analyzed":false,"doc_values":true},{"name":"enrichmentsplitterbolt:splitter:end:ts","type":"date","count":0,"scripted":false,"indexed":true,"analyzed":false,"doc_values":true},{"name":"enrichments:geo:ip_dst_addr:city","type":"string","count":0,"scripted":false,"indexed":true,"analyzed":false,"doc_values":true},{"name":"adapter:hostfromjsonlistadapter:begin:ts","type":"date","count":0,"scripted":false,"indexed":true,"analyzed":false,"doc_values":true},{"name":"enrichments:geo:ip_src_addr:postalCode","type":"string","count":0,"scripted":false,"indexed":true,"analyzed":false,"doc_values":true},{"name":"ethlen","type":"string","count":0,"scripted":false,"indexed":true,"analyzed":false,"doc_values":true},{"name":"threat:triage:level","type":"number","count":0,"scripted":false,"indexed":true,"analyzed":false,"doc_values":true},{"name":"tcpflags","type":"string","count":0,"scripted":false,"indexed":true,"analyzed":true,"doc_values":false},{"name":"adapter:threatinteladapter:begin:ts","type":"date","count":0,"scripted":false,"indexed":true,"analyzed":false,"doc_values":true},{"name":"_source","type":"_source","count":0,"scripted":false,"indexed":false,"analyzed":false,"doc_values":false},{"name":"enrichments:geo:ip_dst_addr:country","type":"string","count":0,"scripted":false,"indexed":true,"analyzed":false,"doc_values":true},{"name":"enrichments:geo:ip_dst_addr:locID","type":"string","count":0,"scripted":false,"indexed":true,"analyzed":false,"doc_values":true},{"name":"_index","type":"string","count":0,"scripted":false,"indexed":false,"analyzed":false,"doc_values":false},{"name":"ip_dst_port","type":"number","count":0,"scripted":false,"indexed":true,"analyzed":false,"doc_values":true},{"name":"threatinteljoinbolt:joiner:ts","type":"date","count":0,"scripted":false,"indexed":true,"analyzed":false,"doc_values":true},{"name":"enrichments:geo:ip_dst_addr:dmaCode","type":"string","count":0,"scripted":false,"indexed":true,"analyzed":false,"doc_values":true},{"name":"sig_rev","type":"string","count":0,"scripted":false,"indexed":true,"analyzed":true,"doc_values":false},{"name":"ethsrc","type":"string","count":0,"scripted":false,"indexed":true,"analyzed":false,"doc_values":true},{"name":"tcpseq","type":"string","count":0,"scripted":false,"indexed":true,"analyzed":true,"doc_values":false},{"name":"enrichmentsplitterbolt:splitter:begin:ts","type":"date","count":0,"scripted":false,"indexed":true,"analyzed":false,"doc_values":true},{"name":"tcpwindow","type":"string","count":0,"scripted":false,"indexed":true,"analyzed":true,"doc_values":false},{"name":"enrichments:geo:ip_dst_addr:latitude","type":"number","count":0,"scripted":false,"indexed":true,"analyzed":false,"doc_values":true},{"name":"source:type","type":"string","count":0,"scripted":false,"indexed":true,"analyzed":false,"doc_values":true},{"name":"ip_dst_addr","type":"ip","count":0,"scripted":false,"indexed":true,"analyzed":false,"doc_values":true},{"name":"adapter:hostfromjsonlistadapter:end:ts","type":"date","count":0,"scripted":false,"indexed":true,"analyzed":false,"doc_values":true},{"name":"tos","type":"number","count":0,"scripted":false,"indexed":true,"analyzed":false,"doc_values":true},{"name":"ip_src_addr","type":"ip","count":0,"scripted":false,"indexed":true,"analyzed":false,"doc_values":true},{"name":"threatintelsplitterbolt:splitter:end:ts","type":"date","count":0,"scripted":false,"indexed":true,"analyzed":false,"doc_values":true},{"name":"enrichments:geo:ip_src_addr:latitude","type":"number","count":0,"scripted":false,"indexed":true,"analyzed":false,"doc_values":true},{"name":"enrichments:geo:ip_dst_addr:longitude","type":"number","count":0,"scripted":false,"indexed":true,"analyzed":false,"doc_values":true},{"name":"timestamp","type":"date","count":0,"scripted":false,"indexed":true,"analyzed":false,"doc_values":true},{"name":"ethdst","type":"string","count":0,"scripted":false,"indexed":true,"analyzed":false,"doc_values":true},{"name":"enrichments:geo:ip_dst_addr:postalCode","type":"string","count":0,"scripted":false,"indexed":true,"analyzed":false,"doc_values":true},{"name":"is_alert","type":"boolean","count":0,"scripted":false,"indexed":true,"analyzed":false,"doc_values":true},{"name":"enrichments:geo:ip_src_addr:country","type":"string","count":0,"scripted":false,"indexed":true,"analyzed":false,"doc_values":true},{"name":"ttl","type":"number","count":0,"scripted":false,"indexed":true,"analyzed":false,"doc_values":true},{"name":"iplen","type":"number","count":0,"scripted":false,"indexed":true,"analyzed":false,"doc_values":true},{"name":"ip_src_port","type":"number","count":0,"scripted":false,"indexed":true,"analyzed":false,"doc_values":true},{"name":"threatintelsplitterbolt:splitter:begin:ts","type":"date","count":0,"scripted":false,"indexed":true,"analyzed":false,"doc_values":true},{"name":"sig_id","type":"number","count":0,"scripted":false,"indexed":true,"analyzed":false,"doc_values":true},{"name":"sig_generator","type":"string","count":0,"scripted":false,"indexed":true,"analyzed":false,"doc_values":true},{"name":"enrichments:geo:ip_src_addr:city","type":"string","count":0,"scripted":false,"indexed":true,"analyzed":false,"doc_values":true},{"name":"_id","type":"string","count":0,"scripted":false,"indexed":false,"analyzed":false,"doc_values":false},{"name":"_type","type":"string","count":0,"scripted":false,"indexed":false,"analyzed":false,"doc_values":false},{"name":"_score","type":"number","count":0,"scripted":false,"indexed":false,"analyzed":false,"doc_values":false}]
p219
sVtimeFieldName
p220
Vtimestamp
p221
sVtitle
p222
Vsnort*
p223
ssV_index
p224
V.kibana
p225
sa(dp226
V_score
p227
F1
sV_type
p228
Vvisualization
p229
sV_id
p230
VDNS-Request(s)
p231
sV_source
p232
(dp233
VvisState
p234
V{"title":"DNS Requests","type":"metric","params":{"handleNoResults":true,"fontSize":60},"aggs":[{"id":"1","type":"count","schema":"metric","params":{}}],"listeners":{}}
p235
sVdescription
p236
V
sVtitle
p237
VDNS Requests
p238
sVuiStateJSON
p239
V{}
p240
sVversion
p241
I1
sVsavedSearchId
p242
Vdns-search
p243
sVkibanaSavedObjectMeta
p244
(dp245
VsearchSourceJSON
p246
V{"filter":[]}
p247
sssV_index
p248
V.kibana
p249
sa(dp250
V_score
p251
F1
sV_type
p252
Vvisualization
p253
sV_id
p254
VHTTP(S)-Requests
p255
sV_source
p256
(dp257
VvisState
p258
V{"title":"Web Requests","type":"metric","params":{"handleNoResults":true,"fontSize":60},"aggs":[{"id":"1","type":"count","schema":"metric","params":{}}],"listeners":{}}
p259
sVdescription
p260
V
sVtitle
p261
VWeb Requests
p262
sVuiStateJSON
p263
V{}
p264
sVversion
p265
I1
sVsavedSearchId
p266
Vweb-search
p267
sVkibanaSavedObjectMeta
p268
(dp269
VsearchSourceJSON
p270
V{"filter":[]}
p271
sssV_index
p272
V.kibana
p273
sa(dp274
V_score
p275
F1
sV_type
p276
Vsearch
p277
sV_id
p278
Vdns-search
p279
sV_source
p280
(dp281
Vsort
p282
(lp283
Vtimestamp
p284
aVdesc
p285
asVhits
p286
I0
sVdescription
p287
V
sVtitle
p288
VDNS Requests
p289
sVversion
p290
I1
sVkibanaSavedObjectMeta
p291
(dp292
VsearchSourceJSON
p293
V{"index":"bro*","query":{"query_string":{"query":"protocol: dns","analyze_wildcard":true}},"filter":[],"highlight":{"pre_tags":["@kibana-highlighted-field@"],"post_tags":["@/kibana-highlighted-field@"],"fields":{"*":{}},"require_field_match":false,"fragment_size":2147483647}}
p294
ssVcolumns
p295
(lp296
Vquery
p297
aVqtype_name
p298
aVanswers
p299
aVip_src_addr
p300
aVip_dst_addr
p301
assV_index
p302
V.kibana
p303
sa(dp304
V_score
p305
F1
sV_type
p306
Vvisualization
p307
sV_id
p308
VUnusual-Referrers
p309
sV_source
p310
(dp311
VvisState
p312
V{"title":"Unusual Referrers","type":"table","params":{"perPage":10,"showPartialRows":false,"showMeticsAtAllLevels":false},"aggs":[{"id":"1","type":"count","schema":"metric","params":{}},{"id":"2","type":"significant_terms","schema":"bucket","params":{"field":"referrer","size":5,"customLabel":"Top 5 Unusual Referrers"}}],"listeners":{}}
p313
sVdescription
p314
V
sVtitle
p315
VUnusual Referrers
p316
sVuiStateJSON
p317
V{}
p318
sVversion
p319
I1
sVsavedSearchId
p320
Vweb-search
p321
sVkibanaSavedObjectMeta
p322
(dp323
VsearchSourceJSON
p324
V{"filter":[]}
p325
sssV_index
p326
V.kibana
p327
sa(dp328
V_score
p329
F1
sV_type
p330
Vvisualization
p331
sV_id
p332
VFrequent-DNS-Requests
p333
sV_source
p334
(dp335
VvisState
p336
V{"title":"Frequent DNS Requests","type":"table","params":{"perPage":10,"showPartialRows":false,"showMeticsAtAllLevels":false},"aggs":[{"id":"1","type":"count","schema":"metric","params":{}},{"id":"2","type":"terms","schema":"bucket","params":{"field":"query","size":5,"order":"desc","orderBy":"1","customLabel":"DNS Query"}}],"listeners":{}}
p337
sVdescription
p338
V
sVtitle
p339
VFrequent DNS Requests
p340
sVuiStateJSON
p341
V{}
p342
sVversion
p343
I1
sVkibanaSavedObjectMeta
p344
(dp345
VsearchSourceJSON
p346
V{"index":"bro*","query":{"query_string":{"query":"*","analyze_wildcard":true}},"filter":[]}
p347
sssV_index
p348
V.kibana
p349
sa(dp350
V_score
p351
F1
sV_type
p352
Vvisualization
p353
sV_id
p354
VCountry
p355
sV_source
p356
(dp357
VvisState
p358
V{"title":"By Country","type":"pie","params":{"shareYAxis":true,"addTooltip":true,"addLegend":true,"isDonut":false},"aggs":[{"id":"1","type":"count","schema":"metric","params":{}},{"id":"2","type":"terms","schema":"segment","params":{"field":"enrichments:geo:ip_src_addr:country","size":5,"order":"desc","orderBy":"1"}}],"listeners":{}}
p359
sVdescription
p360
V
sVtitle
p361
VBy Country
p362
sVuiStateJSON
p363
V{}
p364
sVversion
p365
I1
sVkibanaSavedObjectMeta
p366
(dp367
VsearchSourceJSON
p368
V{"index":["yaf*", "bro*", "snort*"],"query":{"query_string":{"query":"*","analyze_wildcard":true}},"filter":[]}
p369
sssV_index
p370
V.kibana
p371
sa(dp372
V_score
p373
F1
sV_type
p374
Vvisualization
p375
sV_id
p376
VTop-Destinations
p377
sV_source
p378
(dp379
VvisState
p380
V{"title":"Top Destinations","type":"table","params":{"perPage":10,"showPartialRows":false,"showMeticsAtAllLevels":false},"aggs":[{"id":"1","type":"count","schema":"metric","params":{}},{"id":"2","type":"terms","schema":"bucket","params":{"field":"ip_dst_addr","size":10,"order":"desc","orderBy":"1","customLabel":"Destination IP"}}],"listeners":{}}
p381
sVdescription
p382
V
sVtitle
p383
VTop Destinations
p384
sVuiStateJSON
p385
V{}
p386
sVversion
p387
I1
sVkibanaSavedObjectMeta
p388
(dp389
VsearchSourceJSON
p390
V{"index":["yaf*", "bro*", "snort*"],"query":{"query_string":{"query":"*","analyze_wildcard":true}},"filter":[]}
p391
sssV_index
p392
V.kibana
p393
sa(dp394
V_score
p395
F1
sV_type
p396
Vvisualization
p397
sV_id
p398
VYAF-Flows-Header
p399
sV_source
p400
(dp401
VvisState
p402
V{"title":"YAF","type":"markdown","params":{"markdown":"[YAF](https://tools.netsa.cert.org/yaf/yaf.html) can be used to generate Netflow-like flow records.  These flow records provide significant visibility of the actors communicating over the target network."},"aggs":[],"listeners":{}}
p403
sVdescription
p404
V
sVtitle
p405
VYAF
p406
sVuiStateJSON
p407
V{}
p408
sVversion
p409
I1
sVkibanaSavedObjectMeta
p410
(dp411
VsearchSourceJSON
p412
V{"query":{"query_string":{"analyze_wildcard":true,"query":"*"}},"filter":[]}
p413
sssV_index
p414
V.kibana
p415
sa(dp416
V_score
p417
F1
sV_type
p418
Vvisualization
p419
sV_id
p420
VWeb-Request-Type
p421
sV_source
p422
(dp423
VvisState
p424
V{"title":"Web Request Type","type":"pie","params":{"shareYAxis":true,"addTooltip":true,"addLegend":true,"isDonut":false},"aggs":[{"id":"1","type":"count","schema":"metric","params":{}},{"id":"2","type":"terms","schema":"segment","params":{"field":"method","size":5,"order":"desc","orderBy":"1"}}],"listeners":{}}
p425
sVdescription
p426
V
sVtitle
p427
VWeb Request Type
p428
sVuiStateJSON
p429
V{}
p430
sVversion
p431
I1
sVsavedSearchId
p432
Vweb-search
p433
sVkibanaSavedObjectMeta
p434
(dp435
VsearchSourceJSON
p436
V{"filter":[]}
p437
sssV_index
p438
V.kibana
p439
sa(dp440
V_score
p441
F1
sV_type
p442
Vindex-pattern
p443
sV_id
p444
Vbro*
p445
sV_source
p446
(dp447
Vfields
p448
V[{"name":"TTLs","type":"number","count":0,"scripted":false,"indexed":true,"analyzed":false,"doc_values":true},{"name":"qclass_name","type":"string","count":0,"scripted":false,"indexed":true,"analyzed":false,"doc_values":true},{"name":"bro_timestamp","type":"string","count":0,"scripted":false,"indexed":true,"analyzed":true,"doc_values":false},{"name":"enrichments:geo:ip_dst_addr:location_point","type":"geo_point","count":0,"scripted":false,"indexed":true,"analyzed":false,"doc_values":true},{"name":"answers","type":"ip","count":0,"scripted":false,"indexed":true,"analyzed":false,"doc_values":true},{"name":"enrichmentjoinbolt:joiner:ts","type":"date","count":0,"scripted":false,"indexed":true,"analyzed":false,"doc_values":true},{"name":"adapter:geoadapter:begin:ts","type":"date","count":1,"scripted":false,"indexed":true,"analyzed":false,"doc_values":true},{"name":"resp_mime_types","type":"string","count":0,"scripted":false,"indexed":true,"analyzed":true,"doc_values":false},{"name":"protocol","type":"string","count":0,"scripted":false,"indexed":true,"analyzed":false,"doc_values":true},{"name":"original_string","type":"string","count":0,"scripted":false,"indexed":true,"analyzed":true,"doc_values":false},{"name":"adapter:threatinteladapter:end:ts","type":"date","count":0,"scripted":false,"indexed":true,"analyzed":false,"doc_values":true},{"name":"host","type":"string","count":0,"scripted":false,"indexed":true,"analyzed":false,"doc_values":true},{"name":"adapter:geoadapter:end:ts","type":"date","count":1,"scripted":false,"indexed":true,"analyzed":false,"doc_values":true},{"name":"AA","type":"boolean","count":0,"scripted":false,"indexed":true,"analyzed":false,"doc_values":true},{"name":"method","type":"string","count":0,"scripted":false,"indexed":true,"analyzed":false,"doc_values":true},{"name":"enrichmentsplitterbolt:splitter:end:ts","type":"date","count":0,"scripted":false,"indexed":true,"analyzed":false,"doc_values":true},{"name":"query","type":"string","count":0,"scripted":false,"indexed":true,"analyzed":false,"doc_values":true},{"name":"enrichments:geo:ip_dst_addr:city","type":"string","count":0,"scripted":false,"indexed":true,"analyzed":false,"doc_values":true},{"name":"rcode","type":"number","count":0,"scripted":false,"indexed":true,"analyzed":false,"doc_values":true},{"name":"adapter:hostfromjsonlistadapter:begin:ts","type":"date","count":0,"scripted":false,"indexed":true,"analyzed":false,"doc_values":true},{"name":"orig_mime_types","type":"string","count":0,"scripted":false,"indexed":true,"analyzed":true,"doc_values":false},{"name":"RA","type":"boolean","count":0,"scripted":false,"indexed":true,"analyzed":false,"doc_values":true},{"name":"RD","type":"boolean","count":0,"scripted":false,"indexed":true,"analyzed":false,"doc_values":true},{"name":"orig_fuids","type":"string","count":0,"scripted":false,"indexed":true,"analyzed":true,"doc_values":false},{"name":"proto","type":"string","count":0,"scripted":false,"indexed":true,"analyzed":false,"doc_values":true},{"name":"adapter:threatinteladapter:begin:ts","type":"date","count":0,"scripted":false,"indexed":true,"analyzed":false,"doc_values":true},{"name":"_source","type":"_source","count":0,"scripted":false,"indexed":false,"analyzed":false,"doc_values":false},{"name":"enrichments:geo:ip_dst_addr:country","type":"string","count":0,"scripted":false,"indexed":true,"analyzed":false,"doc_values":true},{"name":"response_body_len","type":"number","count":0,"scripted":false,"indexed":true,"analyzed":false,"doc_values":true},{"name":"enrichments:geo:ip_dst_addr:locID","type":"string","count":0,"scripted":false,"indexed":true,"analyzed":false,"doc_values":true},{"name":"qtype_name","type":"string","count":0,"scripted":false,"indexed":true,"analyzed":false,"doc_values":true},{"name":"status_code","type":"number","count":0,"scripted":false,"indexed":true,"analyzed":false,"doc_values":true},{"name":"_index","type":"string","count":0,"scripted":false,"indexed":false,"analyzed":false,"doc_values":false},{"name":"ip_dst_port","type":"number","count":0,"scripted":false,"indexed":true,"analyzed":false,"doc_values":true},{"name":"enrichments:geo:ip_dst_addr:dmaCode","type":"string","count":0,"scripted":false,"indexed":true,"analyzed":false,"doc_values":true},{"name":"threatinteljoinbolt:joiner:ts","type":"date","count":0,"scripted":false,"indexed":true,"analyzed":false,"doc_values":true},{"name":"rejected","type":"boolean","count":0,"scripted":false,"indexed":true,"analyzed":false,"doc_values":true},{"name":"qtype","type":"number","count":0,"scripted":false,"indexed":true,"analyzed":false,"doc_values":true},{"name":"enrichmentsplitterbolt:splitter:begin:ts","type":"date","count":0,"scripted":false,"indexed":true,"analyzed":false,"doc_values":true},{"name":"trans_id","type":"number","count":0,"scripted":false,"indexed":true,"analyzed":false,"doc_values":true},{"name":"enrichments:geo:ip_dst_addr:latitude","type":"number","count":0,"scripted":false,"indexed":true,"analyzed":false,"doc_values":true},{"name":"uid","type":"string","count":0,"scripted":false,"indexed":true,"analyzed":false,"doc_values":true},{"name":"source:type","type":"string","count":0,"scripted":false,"indexed":true,"analyzed":false,"doc_values":true},{"name":"trans_depth","type":"number","count":0,"scripted":false,"indexed":true,"analyzed":false,"doc_values":true},{"name":"ip_dst_addr","type":"ip","count":0,"scripted":false,"indexed":true,"analyzed":false,"doc_values":true},{"name":"adapter:hostfromjsonlistadapter:end:ts","type":"date","count":0,"scripted":false,"indexed":true,"analyzed":false,"doc_values":true},{"name":"Z","type":"number","count":0,"scripted":false,"indexed":true,"analyzed":false,"doc_values":true},{"name":"ip_src_addr","type":"ip","count":0,"scripted":false,"indexed":true,"analyzed":false,"doc_values":true},{"name":"threatintelsplitterbolt:splitter:end:ts","type":"date","count":0,"scripted":false,"indexed":true,"analyzed":false,"doc_values":true},{"name":"enrichments:geo:ip_dst_addr:longitude","type":"number","count":0,"scripted":false,"indexed":true,"analyzed":false,"doc_values":true},{"name":"user_agent","type":"string","count":0,"scripted":false,"indexed":true,"analyzed":true,"doc_values":false},{"name":"qclass","type":"number","count":0,"scripted":false,"indexed":true,"analyzed":false,"doc_values":true},{"name":"timestamp","type":"date","count":0,"scripted":false,"indexed":true,"analyzed":false,"doc_values":true},{"name":"resp_fuids","type":"string","count":0,"scripted":false,"indexed":true,"analyzed":true,"doc_values":false},{"name":"request_body_len","type":"number","count":0,"scripted":false,"indexed":true,"analyzed":false,"doc_values":true},{"name":"enrichments:geo:ip_dst_addr:postalCode","type":"string","count":0,"scripted":false,"indexed":true,"analyzed":false,"doc_values":true},{"name":"uri","type":"string","count":0,"scripted":false,"indexed":true,"analyzed":false,"doc_values":true},{"name":"rcode_name","type":"string","count":0,"scripted":false,"indexed":true,"analyzed":false,"doc_values":true},{"name":"TC","type":"boolean","count":0,"scripted":false,"indexed":true,"analyzed":false,"doc_values":true},{"name":"referrer","type":"string","count":0,"scripted":false,"indexed":true,"analyzed":false,"doc_values":true},{"name":"ip_src_port","type":"number","count":0,"scripted":false,"indexed":true,"analyzed":false,"doc_values":true},{"name":"status_msg","type":"string","count":0,"scripted":false,"indexed":true,"analyzed":false,"doc_values":true},{"name":"threatintelsplitterbolt:splitter:begin:ts","type":"date","count":0,"scripted":false,"indexed":true,"analyzed":false,"doc_values":true},{"name":"_id","type":"string","count":0,"scripted":false,"indexed":false,"analyzed":false,"doc_values":false},{"name":"_type","type":"string","count":1,"scripted":false,"indexed":false,"analyzed":false,"doc_values":false},{"name":"_score","type":"number","count":2,"scripted":false,"indexed":false,"analyzed":false,"doc_values":false}]
p449
sVtimeFieldName
p450
Vtimestamp
p451
sVtitle
p452
Vbro*
p453
ssV_index
p454
V.kibana
p455
sa(dp456
V_score
p457
F1
sV_type
p458
Vvisualization
p459
sV_id
p460
VFlow-Duration
p461
sV_source
p462
(dp463
VvisState
p464
V{"title":"Flow Duration","type":"area","params":{"shareYAxis":true,"addTooltip":true,"addLegend":true,"smoothLines":false,"scale":"linear","interpolate":"linear","mode":"stacked","times":[],"addTimeMarker":false,"defaultYExtents":false,"setYExtents":false,"yAxis":{}},"aggs":[{"id":"1","type":"count","schema":"metric","params":{}},{"id":"2","type":"histogram","schema":"segment","params":{"field":"duration","interval":10,"extended_bounds":{},"customLabel":"Flow Duration (seconds)"}}],"listeners":{}}
p465
sVdescription
p466
V
sVtitle
p467
VFlow Duration
p468
sVuiStateJSON
p469
V{"vis":{"legendOpen":false}}
p470
sVversion
p471
I1
sVkibanaSavedObjectMeta
p472
(dp473
VsearchSourceJSON
p474
V{"index":"yaf*","query":{"query_string":{"query":"*","analyze_wildcard":true}},"filter":[]}
p475
sssV_index
p476
V.kibana
p477
sa(dp478
V_score
p479
F1
sV_type
p480
Vvisualization
p481
sV_id
p482
VEvents
p483
sV_source
p484
(dp485
VvisState
p486
V{"title":"Events","type":"histogram","params":{"shareYAxis":true,"addTooltip":true,"addLegend":true,"scale":"linear","mode":"stacked","times":[],"addTimeMarker":false,"defaultYExtents":false,"setYExtents":false,"yAxis":{}},"aggs":[{"id":"1","type":"count","schema":"metric","params":{}},{"id":"2","type":"date_histogram","schema":"segment","params":{"field":"timestamp","interval":"auto","customInterval":"2h","min_doc_count":1,"extended_bounds":{}}},{"id":"3","type":"terms","schema":"group","params":{"field":"source:type","size":5,"order":"desc","orderBy":"1"}}],"listeners":{}}
p487
sVdescription
p488
V
sVtitle
p489
VEvents
p490
sVuiStateJSON
p491
V{"vis":{"legendOpen":false}}
p492
sVversion
p493
I1
sVkibanaSavedObjectMeta
p494
(dp495
VsearchSourceJSON
p496
V{"index":["yaf*", "bro*", "snort*"],"query":{"query_string":{"query":"*","analyze_wildcard":true}},"filter":[]}
p497
sssV_index
p498
V.kibana
p499
sa(dp500
V_score
p501
F1
sV_type
p502
Vvisualization
p503
sV_id
p504
VWeb-Request-Header
p505
sV_source
p506
(dp507
VvisState
p508
V{"title":"Web Request Header","type":"markdown","params":{"markdown":"The [Bro Network Security Monitor](https://www.bro.org/) is extracting application-level information from raw network packets.  In this example, Bro is extracting HTTP(S) requests being made over the network. "},"aggs":[],"listeners":{}}
p509
sVdescription
p510
V
sVtitle
p511
VWeb Request Header
p512
sVuiStateJSON
p513
V{}
p514
sVversion
p515
I1
sVkibanaSavedObjectMeta
p516
(dp517
VsearchSourceJSON
p518
V{"query":{"query_string":{"query":"*","analyze_wildcard":true}},"filter":[]}
p519
sssV_index
p520
V.kibana
p521
sa(dp522
V_score
p523
F1
sV_type
p524
Vvisualization
p525
sV_id
p526
VTop-Alerts-By-Host
p527
sV_source
p528
(dp529
VvisState
p530
V{"title":"New Visualization","type":"table","params":{"perPage":10,"showPartialRows":false,"showMeticsAtAllLevels":false},"aggs":[{"id":"1","type":"count","schema":"metric","params":{}},{"id":"2","type":"terms","schema":"bucket","params":{"field":"ip_src_addr","size":5,"order":"desc","orderBy":"1","customLabel":"Source"}},{"id":"3","type":"terms","schema":"bucket","params":{"field":"ip_dst_addr","size":5,"order":"desc","orderBy":"1","customLabel":"Destination"}}],"listeners":{}}
p531
sVdescription
p532
V
sVtitle
p533
VTop Alerts By Host
p534
sVuiStateJSON
p535
V{}
p536
sVversion
p537
I1
sVsavedSearchId
p538
Vsnort-search
p539
sVkibanaSavedObjectMeta
p540
(dp541
VsearchSourceJSON
p542
V{"filter":[]}
p543
sssV_index
p544
V.kibana
p545
sa(dp546
V_score
p547
F1
sV_type
p548
Vvisualization
p549
sV_id
p550
VTop-DNS-Query
p551
sV_source
p552
(dp553
VvisState
p554
V{"title":"Top DNS Query","type":"table","params":{"perPage":10,"showPartialRows":false,"showMeticsAtAllLevels":false},"aggs":[{"id":"1","type":"count","schema":"metric","params":{}},{"id":"2","type":"terms","schema":"bucket","params":{"field":"query","size":10,"order":"desc","orderBy":"1"}}],"listeners":{}}
p555
sVdescription
p556
V
sVtitle
p557
VTop DNS Query
p558
sVuiStateJSON
p559
V{}
p560
sVversion
p561
I1
sVkibanaSavedObjectMeta
p562
(dp563
VsearchSourceJSON
p564
V{"index":"bro*","query":{"query_string":{"query":"*","analyze_wildcard":true}},"filter":[]}
p565
sssV_index
p566
V.kibana
p567
sa(dp568
V_score
p569
F1
sV_type
p570
Vvisualization
p571
sV_id
p572
VEvent-Types
p573
sV_source
p574
(dp575
VvisState
p576
V{"title":"Event Sources","type":"pie","params":{"shareYAxis":true,"addTooltip":true,"addLegend":true,"isDonut":false},"aggs":[{"id":"1","type":"count","schema":"metric","params":{}},{"id":"2","type":"terms","schema":"segment","params":{"field":"source:type","size":10,"order":"desc","orderBy":"1"}}],"listeners":{}}
p577
sVdescription
p578
V
sVtitle
p579
VEvent Sources
p580
sVuiStateJSON
p581
V{}
p582
sVversion
p583
I1
sVkibanaSavedObjectMeta
p584
(dp585
VsearchSourceJSON
p586
V{"index":["yaf*", "bro*", "snort*"],"query":{"query_string":{"query":"*","analyze_wildcard":true}},"filter":[]}
p587
sssV_index
p588
V.kibana
p589
sa(dp590
V_score
p591
F1
sV_type
p592
Vvisualization
p593
sV_id
p594
VSnort-Header
p595
sV_source
p596
(dp597
VvisState
p598
V{"title":"Snort","type":"markdown","params":{"markdown":"[Snort](https://www.snort.org/) is a Network Intrusion Detection System (NIDS) that is being used to generate alerts identifying known bad events.  Snort relies on a fixed set of rules that act as signatures for identifying abnormal events."},"aggs":[],"listeners":{}}
p599
sVdescription
p600
V
sVtitle
p601
VSnort
p602
sVuiStateJSON
p603
V{}
p604
sVversion
p605
I1
sVkibanaSavedObjectMeta
p606
(dp607
VsearchSourceJSON
p608
V{"query":{"query_string":{"query":"*","analyze_wildcard":true}},"filter":[]}
p609
sssV_index
p610
V.kibana
p611
sa(dp612
V_score
p613
F1
sV_type
p614
Vdashboard
p615
sV_id
p616
VMetron-Dashboard
p617
sV_source
p618
(dp619
Vhits
p620
I0
sVtimeRestore
p621
I00
sVdescription
p622
V
sVtitle
p623
VMetron Dashboard
p624
sVuiStateJSON
p625
V{"P-23":{"spy":{"mode":{"name":null,"fill":false}}},"P-34":{"vis":{"legendOpen":false}}}
p626
sVpanelsJSON
p627
V[{"col":1,"id":"Welcome","panelIndex":30,"row":1,"size_x":11,"size_y":2,"type":"visualization"},{"col":1,"id":"Total-Events","panelIndex":6,"row":3,"size_x":3,"size_y":2,"type":"visualization"},{"col":4,"id":"Events","panelIndex":16,"row":3,"size_x":8,"size_y":4,"type":"visualization"},{"col":1,"id":"Event-Types","panelIndex":15,"row":5,"size_x":3,"size_y":2,"type":"visualization"},{"col":1,"id":"Location-Header","panelIndex":24,"row":7,"size_x":3,"size_y":2,"type":"visualization"},{"col":1,"id":"Unique-Location(s)","panelIndex":23,"row":9,"size_x":3,"size_y":2,"type":"visualization"},{"col":4,"id":"Flow-Locations","panelIndex":32,"row":7,"size_x":8,"size_y":6,"type":"visualization"},{"col":1,"id":"Country","panelIndex":8,"row":11,"size_x":3,"size_y":2,"type":"visualization"},{"col":1,"id":"YAF-Flows-Header","panelIndex":27,"row":13,"size_x":3,"size_y":2,"type":"visualization"},{"col":1,"id":"YAF-Flow(s)","panelIndex":21,"row":15,"size_x":3,"size_y":2,"type":"visualization"},{"col":4,"columns":["ip_src_addr","ip_src_port","ip_dst_addr","ip_dst_port","protocol","duration","pkt"],"id":"yaf-search","panelIndex":20,"row":13,"size_x":8,"size_y":6,"sort":["duration","desc"],"type":"search"},{"col":1,"id":"Flow-Duration","panelIndex":31,"row":17,"size_x":3,"size_y":2,"type":"visualization"},{"col":1,"id":"Snort-Header","panelIndex":25,"row":19,"size_x":3,"size_y":2,"type":"visualization"},{"col":4,"columns":["msg","sig_id","ip_src_addr","ip_src_port","ip_dst_addr","ip_dst_port"],"id":"snort-search","panelIndex":3,"row":19,"size_x":8,"size_y":6,"sort":["timestamp","desc"],"type":"search"},{"col":1,"id":"Snort-Alert-Types","panelIndex":10,"row":21,"size_x":3,"size_y":2,"type":"visualization"},{"col":1,"id":"Top-Alerts-By-Host","panelIndex":19,"row":23,"size_x":3,"size_y":2,"type":"visualization"},{"col":1,"id":"Web-Request-Header","panelIndex":26,"row":25,"size_x":3,"size_y":2,"type":"visualization"},{"col":4,"columns":["method","host","uri","referrer","user_agent","ip_src_addr","ip_dst_addr"],"id":"web-search","panelIndex":4,"row":25,"size_x":8,"size_y":6,"sort":["timestamp","desc"],"type":"search"},{"col":1,"id":"HTTP(S)-Requests","panelIndex":17,"row":27,"size_x":3,"size_y":2,"type":"visualization"},{"col":1,"id":"DNS-Requests-Header","panelIndex":29,"row":31,"size_x":3,"size_y":2,"type":"visualization"},{"col":4,"columns":["query","qtype_name","answers","ip_src_addr","ip_dst_addr"],"id":"dns-search","panelIndex":5,"row":31,"size_x":8,"size_y":6,"sort":["timestamp","desc"],"type":"search"},{"col":1,"id":"DNS-Request(s)","panelIndex":14,"row":33,"size_x":3,"size_y":2,"type":"visualization"},{"col":1,"id":"Web-Request-Type","panelIndex":33,"row":29,"size_x":3,"size_y":2,"type":"visualization"}]
p628
sVoptionsJSON
p629
V{"darkTheme":false}
p630
sVversion
p631
I1
sVkibanaSavedObjectMeta
p632
(dp633
VsearchSourceJSON
p634
V{"filter":[{"query":{"query_string":{"analyze_wildcard":true,"query":"*"}}}]}
p635
sssV_index
p636
V.kibana
p637
sa(dp638
V_score
p639
F1
sV_type
p640
Vvisualization
p641
sV_id
p642
VFrequent-DNS-Queries
p643
sV_source
p644
(dp645
VvisState
p646
V{"title":"Frequent DNS Requests","type":"table","params":{"perPage":10,"showPartialRows":false,"showMeticsAtAllLevels":false},"aggs":[{"id":"1","type":"count","schema":"metric","params":{}},{"id":"2","type":"terms","schema":"bucket","params":{"field":"query","size":5,"order":"desc","orderBy":"1"}}],"listeners":{}}
p647
sVdescription
p648
V
sVtitle
p649
VFrequent DNS Requests
p650
sVuiStateJSON
p651
V{}
p652
sVversion
p653
I1
sVkibanaSavedObjectMeta
p654
(dp655
VsearchSourceJSON
p656
V{"index":"bro*","query":{"query_string":{"query":"*","analyze_wildcard":true}},"filter":[]}
p657
sssV_index
p658
V.kibana
p659
sa(dp660
V_score
p661
F1
sV_type
p662
Vvisualization
p663
sV_id
p664
VLocation-Header
p665
sV_source
p666
(dp667
VvisState
p668
V{"title":"Enrichment","type":"markdown","params":{"markdown":"Apache Metron can perform real-time enrichment of telemetry data as it is consumed. To highlight this feature, all of the IP address fields collected from the default sensor suite were used to perform geo-ip lookups.  This data was then used to pinpoint each location on the map."},"aggs":[],"listeners":{}}
p669
sVdescription
p670
V
sVtitle
p671
VEnrichment
p672
sVuiStateJSON
p673
V{}
p674
sVversion
p675
I1
sVkibanaSavedObjectMeta
p676
(dp677
VsearchSourceJSON
p678
V{"query":{"query_string":{"query":"*","analyze_wildcard":true}},"filter":[]}
p679
sssV_index
p680
V.kibana
p681
sa(dp682
V_score
p683
F1
sV_type
p684
Vsearch
p685
sV_id
p686
Vweb-search
p687
sV_source
p688
(dp689
Vsort
p690
(lp691
Vtimestamp
p692
aVdesc
p693
asVhits
p694
I0
sVdescription
p695
V
sVtitle
p696
VWeb Requests
p697
sVversion
p698
I1
sVkibanaSavedObjectMeta
p699
(dp700
VsearchSourceJSON
p701
V{"index":"bro*","query":{"query_string":{"query":"protocol: http OR protocol: https","analyze_wildcard":true}},"filter":[],"highlight":{"pre_tags":["@kibana-highlighted-field@"],"post_tags":["@/kibana-highlighted-field@"],"fields":{"*":{}},"require_field_match":false,"fragment_size":2147483647}}
p702
ssVcolumns
p703
(lp704
Vmethod
p705
aVhost
p706
aVuri
p707
aVreferrer
p708
aVip_src_addr
p709
aVip_dst_addr
p710
assV_index
p711
V.kibana
p712
sa(dp713
V_score
p714
F1
sV_type
p715
Vindex-pattern
p716
sV_id
p717
Vyaf*
p718
sV_source
p719
(dp720
Vfields
p721
V[{"name":"enrichments:geo:ip_dst_addr:location_point","type":"geo_point","count":0,"scripted":false,"indexed":true,"analyzed":false,"doc_values":true},{"name":"isn","type":"string","count":0,"scripted":false,"indexed":true,"analyzed":false,"doc_values":true},{"name":"enrichmentjoinbolt:joiner:ts","type":"date","count":0,"scripted":false,"indexed":true,"analyzed":false,"doc_values":true},{"name":"dip","type":"string","count":0,"scripted":false,"indexed":true,"analyzed":false,"doc_values":true},{"name":"adapter:geoadapter:begin:ts","type":"date","count":0,"scripted":false,"indexed":true,"analyzed":false,"doc_values":true},{"name":"dp","type":"string","count":0,"scripted":false,"indexed":true,"analyzed":false,"doc_values":true},{"name":"protocol","type":"string","count":0,"scripted":false,"indexed":true,"analyzed":true,"doc_values":false},{"name":"rpkt","type":"number","count":0,"scripted":false,"indexed":true,"analyzed":false,"doc_values":true},{"name":"original_string","type":"string","count":0,"scripted":false,"indexed":true,"analyzed":true,"doc_values":false},{"name":"adapter:threatinteladapter:end:ts","type":"date","count":0,"scripted":false,"indexed":true,"analyzed":false,"doc_values":true},{"name":"adapter:geoadapter:end:ts","type":"date","count":0,"scripted":false,"indexed":true,"analyzed":false,"doc_values":true},{"name":"tag","type":"string","count":0,"scripted":false,"indexed":true,"analyzed":false,"doc_values":true},{"name":"app","type":"string","count":0,"scripted":false,"indexed":true,"analyzed":false,"doc_values":true},{"name":"oct","type":"number","count":0,"scripted":false,"indexed":true,"analyzed":false,"doc_values":true},{"name":"end_reason","type":"string","count":0,"scripted":false,"indexed":true,"analyzed":true,"doc_values":false},{"name":"enrichmentsplitterbolt:splitter:end:ts","type":"date","count":0,"scripted":false,"indexed":true,"analyzed":false,"doc_values":true},{"name":"enrichments:geo:ip_dst_addr:city","type":"string","count":0,"scripted":false,"indexed":true,"analyzed":false,"doc_values":true},{"name":"adapter:hostfromjsonlistadapter:begin:ts","type":"date","count":0,"scripted":false,"indexed":true,"analyzed":false,"doc_values":true},{"name":"start_time","type":"date","count":0,"scripted":false,"indexed":true,"analyzed":false,"doc_values":true},{"name":"riflags","type":"string","count":0,"scripted":false,"indexed":true,"analyzed":true,"doc_values":false},{"name":"proto","type":"string","count":0,"scripted":false,"indexed":true,"analyzed":false,"doc_values":true},{"name":"adapter:threatinteladapter:begin:ts","type":"date","count":0,"scripted":false,"indexed":true,"analyzed":false,"doc_values":true},{"name":"_source","type":"_source","count":0,"scripted":false,"indexed":false,"analyzed":false,"doc_values":false},{"name":"enrichments:geo:ip_dst_addr:country","type":"string","count":0,"scripted":false,"indexed":true,"analyzed":false,"doc_values":true},{"name":"enrichments:geo:ip_dst_addr:locID","type":"string","count":0,"scripted":false,"indexed":true,"analyzed":false,"doc_values":true},{"name":"iflags","type":"string","count":0,"scripted":false,"indexed":true,"analyzed":false,"doc_values":true},{"name":"_index","type":"string","count":0,"scripted":false,"indexed":false,"analyzed":false,"doc_values":false},{"name":"ip_dst_port","type":"number","count":0,"scripted":false,"indexed":true,"analyzed":false,"doc_values":true},{"name":"enrichments:geo:ip_dst_addr:dmaCode","type":"string","count":0,"scripted":false,"indexed":true,"analyzed":false,"doc_values":true},{"name":"threatinteljoinbolt:joiner:ts","type":"date","count":0,"scripted":false,"indexed":true,"analyzed":false,"doc_values":true},{"name":"uflags","type":"string","count":0,"scripted":false,"indexed":true,"analyzed":false,"doc_values":true},{"name":"enrichmentsplitterbolt:splitter:begin:ts","type":"date","count":0,"scripted":false,"indexed":true,"analyzed":false,"doc_values":true},{"name":"enrichments:geo:ip_dst_addr:latitude","type":"number","count":0,"scripted":false,"indexed":true,"analyzed":false,"doc_values":true},{"name":"duration","type":"number","count":0,"scripted":false,"indexed":true,"analyzed":false,"doc_values":true},{"name":"source:type","type":"string","count":0,"scripted":false,"indexed":true,"analyzed":false,"doc_values":true},{"name":"ip_dst_addr","type":"ip","count":0,"scripted":false,"indexed":true,"analyzed":false,"doc_values":true},{"name":"pkt","type":"number","count":0,"scripted":false,"indexed":true,"analyzed":false,"doc_values":true},{"name":"adapter:hostfromjsonlistadapter:end:ts","type":"date","count":0,"scripted":false,"indexed":true,"analyzed":false,"doc_values":true},{"name":"ruflags","type":"string","count":0,"scripted":false,"indexed":true,"analyzed":false,"doc_values":true},{"name":"roct","type":"number","count":0,"scripted":false,"indexed":true,"analyzed":false,"doc_values":true},{"name":"sip","type":"string","count":0,"scripted":false,"indexed":true,"analyzed":false,"doc_values":true},{"name":"sp","type":"string","count":0,"scripted":false,"indexed":true,"analyzed":false,"doc_values":true},{"name":"ip_src_addr","type":"ip","count":0,"scripted":false,"indexed":true,"analyzed":false,"doc_values":true},{"name":"rtag","type":"string","count":0,"scripted":false,"indexed":true,"analyzed":false,"doc_values":true},{"name":"threatintelsplitterbolt:splitter:end:ts","type":"date","count":0,"scripted":false,"indexed":true,"analyzed":false,"doc_values":true},{"name":"enrichments:geo:ip_dst_addr:longitude","type":"number","count":0,"scripted":false,"indexed":true,"analyzed":false,"doc_values":true},{"name":"timestamp","type":"date","count":0,"scripted":false,"indexed":true,"analyzed":false,"doc_values":true},{"name":"end-reason","type":"string","count":0,"scripted":false,"indexed":true,"analyzed":true,"doc_values":false},{"name":"risn","type":"string","count":0,"scripted":false,"indexed":true,"analyzed":false,"doc_values":true},{"name":"end_time","type":"date","count":0,"scripted":false,"indexed":true,"analyzed":false,"doc_values":true},{"name":"enrichments:geo:ip_dst_addr:postalCode","type":"string","count":0,"scripted":false,"indexed":true,"analyzed":false,"doc_values":true},{"name":"rtt","type":"number","count":0,"scripted":false,"indexed":true,"analyzed":false,"doc_values":true},{"name":"ip_src_port","type":"number","count":0,"scripted":false,"indexed":true,"analyzed":false,"doc_values":true},{"name":"threatintelsplitterbolt:splitter:begin:ts","type":"date","count":0,"scripted":false,"indexed":true,"analyzed":false,"doc_values":true},{"name":"_id","type":"string","count":0,"scripted":false,"indexed":false,"analyzed":false,"doc_values":false},{"name":"_type","type":"string","count":0,"scripted":false,"indexed":false,"analyzed":false,"doc_values":false},{"name":"_score","type":"number","count":0,"scripted":false,"indexed":false,"analyzed":false,"doc_values":false}]
p722
sVtimeFieldName
p723
Vtimestamp
p724
sVtitle
p725
Vyaf*
p726
ssV_index
p727
V.kibana
p728
sa(dp729
V_score
p730
F1
sV_type
p731
Vvisualization
p732
sV_id
p733
VDNS-Requests-Header
p734
sV_source
p735
(dp736
VvisState
p737
V{"aggs":[],"listeners":{},"params":{"markdown":"[Bro](https://www.bro.org/) is extracting DNS requests and responses being made over the network. Understanding who is making those requests, the frequency, and types can provide a deep understanding of the actors present on the network."},"title":"DNS Requests","type":"markdown"}
p738
sVdescription
p739
V
sVtitle
p740
VDNS Requests
p741
sVuiStateJSON
p742
V{}
p743
sVversion
p744
I1
sVkibanaSavedObjectMeta
p745
(dp746
VsearchSourceJSON
p747
V{"query":{"query_string":{"analyze_wildcard":true,"query":"*"}},"filter":[]}
p748
sssV_index
p749
V.kibana
p750
sa(dp751
V_score
p752
F1
sV_type
p753
Vvisualization
p754
sV_id
p755
VFlow-Locations
p756
sV_source
p757
(dp758
VvisState
p759
V{"title":"Flow Locations","type":"tile_map","params":{"mapType":"Scaled Circle Markers","isDesaturated":true,"addTooltip":true,"heatMaxZoom":16,"heatMinOpacity":0.1,"heatRadius":25,"heatBlur":15,"heatNormalizeData":true,"wms":{"enabled":true,"url":"https://basemap.nationalmap.gov/arcgis/services/USGSTopo/MapServer/WMSServer","options":{"version":"1.3.0","layers":"0","format":"image/png","transparent":true,"attribution":"Maps provided by USGS","styles":""}}},"aggs":[{"id":"1","type":"count","schema":"metric","params":{}},{"id":"2","type":"geohash_grid","schema":"segment","params":{"field":"enrichments:geo:ip_dst_addr:location_point","autoPrecision":true,"precision":2}}],"listeners":{}}
p760
sVdescription
p761
V
sVtitle
p762
VFlow Locations
p763
sVuiStateJSON
p764
V{}
p765
sVversion
p766
I1
sVkibanaSavedObjectMeta
p767
(dp768
VsearchSourceJSON
p769
V{"index":["yaf*","bro*","snort*"],"query":{"query_string":{"query":"*","analyze_wildcard":true}},"filter":[]}
p770
sssV_index
p771
V.kibana
p772
sa.